ARM GAS  C:\Users\rohi2\AppData\Local\Temp\ccib12mr.s 			page 1


   1              		.syntax unified
   2              		.cpu cortex-m3
   3              		.fpu softvfp
   4              		.eabi_attribute 20, 1
   5              		.eabi_attribute 21, 1
   6              		.eabi_attribute 23, 3
   7              		.eabi_attribute 24, 1
   8              		.eabi_attribute 25, 1
   9              		.eabi_attribute 26, 1
  10              		.eabi_attribute 30, 1
  11              		.eabi_attribute 34, 1
  12              		.eabi_attribute 18, 4
  13              		.thumb
  14              		.file	"main.c"
  15              		.text
  16              	.Ltext0:
  17              		.cfi_sections	.debug_frame
  18              		.section	.text.HALL_SENSOR,"ax",%progbits
  19              		.align	2
  20              		.global	HALL_SENSOR
  21              		.thumb
  22              		.thumb_func
  23              		.type	HALL_SENSOR, %function
  24              	HALL_SENSOR:
  25              	.LFB87:
  26              		.file 1 "main.c"
   1:main.c        **** 
   2:main.c        **** /* ========================================
   3:main.c        ****     HRLV- EZ4 Ultrasonic sensors and stepper motor interfacing
   4:main.c        ****     26 Jul 2017
   5:main.c        ****     Tarun and Rohith
   6:main.c        ****     
   7:main.c        ****     Adaptive Headlight:  This code controls two stepper motors which aim a 
   8:main.c        ****     bicycle or motorcycle headlight in ther desired direction regardless of
   9:main.c        ****     the tilt of the vehicle, which is detected by an ultrasonic sensor.
  10:main.c        ****     
  11:main.c        ****     In this version, speed is not taken intpo account but should be in later 
  12:main.c        ****     versions.
  13:main.c        ****     
  14:main.c        ****     Summer Project
  15:main.c        ****  * ========================================
  16:main.c        **** */
  17:main.c        **** #include "project.h"
  18:main.c        **** #include <stdio.h>
  19:main.c        **** #include <stdlib.h>
  20:main.c        **** 
  21:main.c        **** #define HALF_STEP
  22:main.c        **** 
  23:main.c        **** // Diagnostic (test) variablrs.
  24:main.c        **** uint32 bad_dx_count ;
  25:main.c        **** float percent_good_counts ;
  26:main.c        **** uint32 bad_event_array[10] ;  // Keep track whenevr something goes wrong.
  27:main.c        **** 
  28:main.c        **** // Table of how to point the beam.  Values determined by experiment.
  29:main.c        **** //uint32 elevation_table[30]= [2,2,3,,4,6,7...], yaw_table[30], elevation_index, yaw_index; K1 =???
  30:main.c        **** //uint32 elevation_step_count ;
  31:main.c        **** 
ARM GAS  C:\Users\rohi2\AppData\Local\Temp\ccib12mr.s 			page 2


  32:main.c        **** int32 yaw_table[11] = {-4, -3, -2, -1, -1, 0, 1, 1, 2, 3, 4}, yaw_index = 0;
  33:main.c        **** 
  34:main.c        **** int32 pitch_table[11] = {4, 3, 2, 1, 0, 0, 0, 1, 2, 3, 4}, pitch_index = 0;
  35:main.c        **** 
  36:main.c        **** /* Yaw index will point to home position at the beginning, which is 5 */
  37:main.c        **** int32 prev_yaw_index = 5, prev_pitch_index = 5;
  38:main.c        **** 
  39:main.c        **** /* Steps to move */
  40:main.c        **** int32 move_steps = 0, pitch_move_steps = 0, pitch_no_of_steps = 0;
  41:main.c        **** 
  42:main.c        **** /* Count variables to keep track of the pulse width of the sensor response */
  43:main.c        **** int count = 0, count2, sensor_delay_count = 0;
  44:main.c        **** 
  45:main.c        **** /* Variables to store distances measured by the two sensors */
  46:main.c        **** float distance = 0.0, distance2;
  47:main.c        **** 
  48:main.c        **** /* Delay between the steps of the stepper motor, 
  49:main.c        ****     delay is sufficient to generate enough track for our application */
  50:main.c        **** uint16 delay = 10000;
  51:main.c        **** 
  52:main.c        **** /* Keep track of the sum and differences between the distances tracked by the two sensors */
  53:main.c        **** int sum, difference;
  54:main.c        **** int hall_count = 0;
  55:main.c        **** 
  56:main.c        **** /* Flags to keep track of motor movement */
  57:main.c        **** uint16 ccw_flag = 0, cw_flag = 0;
  58:main.c        **** 
  59:main.c        **** /* Variable to keep track of no of steps that the stepper motor should rotate */
  60:main.c        **** int16 no_of_steps = 10;
  61:main.c        **** 
  62:main.c        **** /* Loop variable */
  63:main.c        **** int i;
  64:main.c        **** 
  65:main.c        **** /* Variables to store previous valid value of distances */
  66:main.c        **** float prev_distance = 0.0, prev_distance2;
  67:main.c        **** 
  68:main.c        **** /* A flag to indicate when the magnet is detected by the Hall Sensor */
  69:main.c        **** uint8 hall_sensor_flag = 0;
  70:main.c        **** uint8 pitch_limit = 10;
  71:main.c        **** 
  72:main.c        **** #ifdef HALF_STEP
  73:main.c        **** void yaw_step1()
  74:main.c        **** {
  75:main.c        ****     Pin_A1_Write(1);
  76:main.c        ****     Pin_A2_Write(0);
  77:main.c        ****     Pin_B1_Write(0);
  78:main.c        ****     Pin_B2_Write(0);   
  79:main.c        **** }
  80:main.c        **** void yaw_step2()
  81:main.c        **** {
  82:main.c        ****     Pin_A1_Write(1);
  83:main.c        ****     Pin_A2_Write(0);
  84:main.c        ****     Pin_B1_Write(1);
  85:main.c        ****     Pin_B2_Write(0);   
  86:main.c        **** }
  87:main.c        **** void yaw_step3() 
  88:main.c        **** {
ARM GAS  C:\Users\rohi2\AppData\Local\Temp\ccib12mr.s 			page 3


  89:main.c        ****     Pin_A1_Write(0);
  90:main.c        ****     Pin_A2_Write(0);
  91:main.c        ****     Pin_B1_Write(1);
  92:main.c        ****     Pin_B2_Write(0);   
  93:main.c        **** }
  94:main.c        **** void yaw_step4() 
  95:main.c        **** {
  96:main.c        ****     Pin_A1_Write(0);
  97:main.c        ****     Pin_A2_Write(1);
  98:main.c        ****     Pin_B1_Write(1);
  99:main.c        ****     Pin_B2_Write(0);   
 100:main.c        **** }
 101:main.c        **** void yaw_step5()
 102:main.c        **** {
 103:main.c        ****     Pin_A1_Write(0);
 104:main.c        ****     Pin_A2_Write(1);
 105:main.c        ****     Pin_B1_Write(0);
 106:main.c        ****     Pin_B2_Write(0);   
 107:main.c        **** }
 108:main.c        **** void yaw_step6() 
 109:main.c        **** {
 110:main.c        ****     Pin_A1_Write(0);
 111:main.c        ****     Pin_A2_Write(1);
 112:main.c        ****     Pin_B1_Write(0);
 113:main.c        ****     Pin_B2_Write(1);   
 114:main.c        **** }
 115:main.c        **** void yaw_step7()
 116:main.c        **** {
 117:main.c        ****     Pin_A1_Write(0);
 118:main.c        ****     Pin_A2_Write(0);
 119:main.c        ****     Pin_B1_Write(0);
 120:main.c        ****     Pin_B2_Write(1);   
 121:main.c        **** }
 122:main.c        **** void yaw_step8() 
 123:main.c        **** {
 124:main.c        ****     Pin_A1_Write(1);
 125:main.c        ****     Pin_A2_Write(0);
 126:main.c        ****     Pin_B1_Write(0);
 127:main.c        ****     Pin_B2_Write(1);   
 128:main.c        **** }
 129:main.c        **** 
 130:main.c        **** void yaw_clockwise()
 131:main.c        **** {
 132:main.c        ****     yaw_step1(); 
 133:main.c        ****     CyDelayUs(delay);
 134:main.c        ****     yaw_step2();
 135:main.c        ****     CyDelayUs(delay);
 136:main.c        ****     yaw_step3();
 137:main.c        ****     CyDelayUs(delay);
 138:main.c        ****     yaw_step4();
 139:main.c        ****     CyDelayUs(delay);
 140:main.c        ****     yaw_step5(); 
 141:main.c        ****     CyDelayUs(delay);
 142:main.c        ****     yaw_step6();
 143:main.c        ****     CyDelayUs(delay);
 144:main.c        ****     yaw_step7();
 145:main.c        ****     CyDelayUs(delay);
ARM GAS  C:\Users\rohi2\AppData\Local\Temp\ccib12mr.s 			page 4


 146:main.c        ****     yaw_step8();
 147:main.c        ****     CyDelayUs(delay);
 148:main.c        **** }
 149:main.c        **** 
 150:main.c        **** void yaw_counter_clockwise()
 151:main.c        **** {
 152:main.c        ****     yaw_step7(); 
 153:main.c        ****     CyDelayUs(delay);
 154:main.c        ****     yaw_step6();
 155:main.c        ****     CyDelayUs(delay);
 156:main.c        ****     yaw_step5();
 157:main.c        ****     CyDelayUs(delay);
 158:main.c        ****     yaw_step4();
 159:main.c        ****     CyDelayUs(delay);
 160:main.c        ****     yaw_step3(); 
 161:main.c        ****     CyDelayUs(delay);
 162:main.c        ****     yaw_step2();
 163:main.c        ****     CyDelayUs(delay);
 164:main.c        ****     yaw_step1();
 165:main.c        ****     CyDelayUs(delay);
 166:main.c        ****     yaw_step8();
 167:main.c        ****     CyDelayUs(delay);
 168:main.c        **** }
 169:main.c        **** 
 170:main.c        **** #endif
 171:main.c        **** 
 172:main.c        **** /* Yaw motor movement */
 173:main.c        **** void step1() 
 174:main.c        **** {
 175:main.c        ****     Pin_A1_Write(0);
 176:main.c        ****     Pin_A2_Write(1);
 177:main.c        ****     Pin_B1_Write(1);
 178:main.c        ****     Pin_B2_Write(0);
 179:main.c        **** }
 180:main.c        **** 
 181:main.c        **** void step2() 
 182:main.c        **** {
 183:main.c        ****     Pin_A1_Write(0);
 184:main.c        ****     Pin_A2_Write(1);
 185:main.c        ****     Pin_B1_Write(0);
 186:main.c        ****     Pin_B2_Write(1);
 187:main.c        **** }
 188:main.c        **** 
 189:main.c        **** void step3() 
 190:main.c        **** {
 191:main.c        ****     Pin_A1_Write(1);
 192:main.c        ****     Pin_A2_Write(0);
 193:main.c        ****     Pin_B1_Write(0);
 194:main.c        ****     Pin_B2_Write(1);
 195:main.c        **** }
 196:main.c        **** void step4() 
 197:main.c        **** {
 198:main.c        ****     Pin_A1_Write(1);
 199:main.c        ****     Pin_A2_Write(0);
 200:main.c        ****     Pin_B1_Write(1);
 201:main.c        ****     Pin_B2_Write(0);
 202:main.c        **** }
ARM GAS  C:\Users\rohi2\AppData\Local\Temp\ccib12mr.s 			page 5


 203:main.c        **** 
 204:main.c        **** /* Pitch motor movement */
 205:main.c        **** void step1_1() 
 206:main.c        **** {
 207:main.c        ****     Pin_A1_1_Write(0);
 208:main.c        ****     Pin_A2_1_Write(1);
 209:main.c        ****     Pin_B1_1_Write(1);
 210:main.c        ****     Pin_B2_1_Write(0);
 211:main.c        **** }
 212:main.c        **** 
 213:main.c        **** void step2_1() 
 214:main.c        **** {
 215:main.c        ****     Pin_A1_1_Write(0);
 216:main.c        ****     Pin_A2_1_Write(1);
 217:main.c        ****     Pin_B1_1_Write(0);
 218:main.c        ****     Pin_B2_1_Write(1);
 219:main.c        **** }
 220:main.c        **** 
 221:main.c        **** void step3_1() 
 222:main.c        **** {
 223:main.c        ****     Pin_A1_1_Write(1);
 224:main.c        ****     Pin_A2_1_Write(0);
 225:main.c        ****     Pin_B1_1_Write(0);
 226:main.c        ****     Pin_B2_1_Write(1);
 227:main.c        **** }
 228:main.c        **** void step4_1() 
 229:main.c        **** {
 230:main.c        ****     Pin_A1_1_Write(1);
 231:main.c        ****     Pin_A2_1_Write(0);
 232:main.c        ****     Pin_B1_1_Write(1);
 233:main.c        ****     Pin_B2_1_Write(0);
 234:main.c        **** }
 235:main.c        **** 
 236:main.c        **** 
 237:main.c        **** /* Pitch */
 238:main.c        **** void stopMotor_1() 
 239:main.c        **** {
 240:main.c        ****     Pin_A1_1_Write(0);
 241:main.c        ****     Pin_A2_1_Write(0);
 242:main.c        ****     Pin_B1_1_Write(0);
 243:main.c        ****     Pin_B2_1_Write(0);
 244:main.c        ****     CyDelay(25);
 245:main.c        **** }
 246:main.c        **** 
 247:main.c        **** /* Yaw */
 248:main.c        **** void stopMotor() 
 249:main.c        **** {
 250:main.c        ****     Pin_A1_Write(0);
 251:main.c        ****     Pin_A2_Write(0);
 252:main.c        ****     Pin_B1_Write(0);
 253:main.c        ****     Pin_B2_Write(0);
 254:main.c        ****     CyDelay(25);
 255:main.c        **** }
 256:main.c        **** 
 257:main.c        **** // Motor "1" is the pitch (up or down) motor.
 258:main.c        **** // down
 259:main.c        **** void clockwise_1()
ARM GAS  C:\Users\rohi2\AppData\Local\Temp\ccib12mr.s 			page 6


 260:main.c        **** {
 261:main.c        ****     step1_1(); 
 262:main.c        ****     CyDelayUs(delay);
 263:main.c        ****     step2_1();
 264:main.c        ****     CyDelayUs(delay);
 265:main.c        ****     step3_1();
 266:main.c        ****     CyDelayUs(delay);
 267:main.c        ****     step4_1();
 268:main.c        ****     CyDelayUs(delay);
 269:main.c        **** }
 270:main.c        **** 
 271:main.c        **** // Yaw motor motion.
 272:main.c        **** void clockwise()
 273:main.c        **** {
 274:main.c        ****     step1(); 
 275:main.c        ****     CyDelayUs(delay);
 276:main.c        ****     step2();
 277:main.c        ****     CyDelayUs(delay);
 278:main.c        ****     step3();
 279:main.c        ****     CyDelayUs(delay);
 280:main.c        ****     step4();
 281:main.c        ****     CyDelayUs(delay);
 282:main.c        **** }
 283:main.c        **** 
 284:main.c        **** void counter_clockwise_1()
 285:main.c        **** {
 286:main.c        ****     step3_1();
 287:main.c        ****     CyDelayUs(delay);
 288:main.c        ****     step2_1();
 289:main.c        ****     CyDelayUs(delay);
 290:main.c        ****     step1_1();
 291:main.c        ****     CyDelayUs(delay);
 292:main.c        ****     step4_1();
 293:main.c        ****     CyDelayUs(delay);
 294:main.c        **** }
 295:main.c        **** 
 296:main.c        **** void counter_clockwise()
 297:main.c        **** {
 298:main.c        ****     step3();
 299:main.c        ****     CyDelayUs(delay);
 300:main.c        ****     step2();
 301:main.c        ****     CyDelayUs(delay);
 302:main.c        ****     step1();
 303:main.c        ****     CyDelayUs(delay);
 304:main.c        ****     step4();
 305:main.c        ****     CyDelayUs(delay);
 306:main.c        **** }
 307:main.c        **** 
 308:main.c        **** 
 309:main.c        **** /* ISR to detect home position of flash light */
 310:main.c        **** CY_ISR(HALL_SENSOR)
 311:main.c        **** {
  27              		.loc 1 311 0
  28              		.cfi_startproc
  29              		@ args = 0, pretend = 0, frame = 0
  30              		@ frame_needed = 0, uses_anonymous_args = 0
  31              		@ link register save eliminated.
ARM GAS  C:\Users\rohi2\AppData\Local\Temp\ccib12mr.s 			page 7


 312:main.c        ****     hall_sensor_flag = 1;
  32              		.loc 1 312 0
  33 0000 034B     		ldr	r3, .L2
  34 0002 0122     		movs	r2, #1
  35 0004 1A70     		strb	r2, [r3]
 313:main.c        ****     hall_count++;
  36              		.loc 1 313 0
  37 0006 5A68     		ldr	r2, [r3, #4]
  38 0008 0132     		adds	r2, r2, #1
  39 000a 5A60     		str	r2, [r3, #4]
  40 000c 7047     		bx	lr
  41              	.L3:
  42 000e 00BF     		.align	2
  43              	.L2:
  44 0010 00000000 		.word	.LANCHOR0
  45              		.cfi_endproc
  46              	.LFE87:
  47              		.size	HALL_SENSOR, .-HALL_SENSOR
  48              		.section	.text.RISING_EDGE_1,"ax",%progbits
  49              		.align	2
  50              		.global	RISING_EDGE_1
  51              		.thumb
  52              		.thumb_func
  53              		.type	RISING_EDGE_1, %function
  54              	RISING_EDGE_1:
  55              	.LFB88:
 314:main.c        **** }
 315:main.c        **** 
 316:main.c        **** //Interrupt to Start counter1 for ultrasonic sensor1
 317:main.c        **** //This interrupt is triggered at the rising edge of the pulse response received from the ultrasonic
 318:main.c        **** CY_ISR(RISING_EDGE_1)
 319:main.c        **** {
  56              		.loc 1 319 0
  57              		.cfi_startproc
  58              		@ args = 0, pretend = 0, frame = 0
  59              		@ frame_needed = 0, uses_anonymous_args = 0
  60 0000 08B5     		push	{r3, lr}
  61              		.cfi_def_cfa_offset 8
  62              		.cfi_offset 3, -8
  63              		.cfi_offset 14, -4
 320:main.c        ****     /* The echo pin of the ISR sends back a pulse proportional to the distnce */
 321:main.c        ****     /* Use a counter to measure the pulse width, Distance can be derived from this pulse width */
 322:main.c        ****     Counter_1_Start();
  64              		.loc 1 322 0
  65 0002 FFF7FEFF 		bl	Counter_1_Start
  66              	.LVL0:
  67 0006 08BD     		pop	{r3, pc}
  68              		.cfi_endproc
  69              	.LFE88:
  70              		.size	RISING_EDGE_1, .-RISING_EDGE_1
  71              		.global	__aeabi_i2d
  72              		.global	__aeabi_ddiv
  73              		.global	__aeabi_d2f
  74              		.global	__aeabi_fcmplt
  75              		.global	__aeabi_fcmpgt
  76              		.global	__aeabi_f2uiz
  77              		.section	.text.FALLING_EDGE_1,"ax",%progbits
ARM GAS  C:\Users\rohi2\AppData\Local\Temp\ccib12mr.s 			page 8


  78              		.align	2
  79              		.global	FALLING_EDGE_1
  80              		.thumb
  81              		.thumb_func
  82              		.type	FALLING_EDGE_1, %function
  83              	FALLING_EDGE_1:
  84              	.LFB89:
 323:main.c        **** }
 324:main.c        **** 
 325:main.c        **** //Interrupt to Stop counter1 for ultrasonic 1
 326:main.c        **** CY_ISR(FALLING_EDGE_1)
 327:main.c        **** {
  85              		.loc 1 327 0
  86              		.cfi_startproc
  87              		@ args = 0, pretend = 0, frame = 0
  88              		@ frame_needed = 0, uses_anonymous_args = 0
  89 0000 38B5     		push	{r3, r4, r5, lr}
  90              		.cfi_def_cfa_offset 16
  91              		.cfi_offset 3, -16
  92              		.cfi_offset 4, -12
  93              		.cfi_offset 5, -8
  94              		.cfi_offset 14, -4
 328:main.c        ****     /* Stop the counter, read its content, which indirectly translates to the pulse width */
 329:main.c        ****     /* Distance information can be obtained from the pulse width */
 330:main.c        ****     Counter_1_Stop();
  95              		.loc 1 330 0
  96 0002 FFF7FEFF 		bl	Counter_1_Stop
  97              	.LVL1:
 331:main.c        ****     count = Counter_1_ReadCounter();
  98              		.loc 1 331 0
  99 0006 FFF7FEFF 		bl	Counter_1_ReadCounter
 100              	.LVL2:
 101 000a 1A4C     		ldr	r4, .L14
 102 000c A060     		str	r0, [r4, #8]
 332:main.c        ****     Counter_1_WriteCounter(0);
 103              		.loc 1 332 0
 104 000e 0020     		movs	r0, #0
 105 0010 FFF7FEFF 		bl	Counter_1_WriteCounter
 106              	.LVL3:
 333:main.c        ****     
 334:main.c        ****     /* Convert the pulse width to distance in cm */
 335:main.c        ****     distance = (float)(count / 10.0);
 107              		.loc 1 335 0
 108 0014 A068     		ldr	r0, [r4, #8]
 109 0016 FFF7FEFF 		bl	__aeabi_i2d
 110              	.LVL4:
 111 001a 0022     		movs	r2, #0
 112 001c 164B     		ldr	r3, .L14+4
 113 001e FFF7FEFF 		bl	__aeabi_ddiv
 114              	.LVL5:
 115 0022 FFF7FEFF 		bl	__aeabi_d2f
 116              	.LVL6:
 117 0026 0546     		mov	r5, r0
 118 0028 E060     		str	r0, [r4, #12]	@ float
 336:main.c        ****     
 337:main.c        ****     /* Simple filtering to ignore rouge values */
 338:main.c        ****     if ((distance < 150) &&(distance > 30))
ARM GAS  C:\Users\rohi2\AppData\Local\Temp\ccib12mr.s 			page 9


 119              		.loc 1 338 0
 120 002a 1449     		ldr	r1, .L14+8
 121 002c FFF7FEFF 		bl	__aeabi_fcmplt
 122              	.LVL7:
 123 0030 30B1     		cbz	r0, .L7
 124              		.loc 1 338 0 is_stmt 0 discriminator 1
 125 0032 2846     		mov	r0, r5
 126 0034 1249     		ldr	r1, .L14+12
 127 0036 FFF7FEFF 		bl	__aeabi_fcmpgt
 128              	.LVL8:
 129 003a 08B1     		cbz	r0, .L7
 339:main.c        ****     {
 340:main.c        ****         prev_distance = distance;
 130              		.loc 1 340 0 is_stmt 1
 131 003c 2561     		str	r5, [r4, #16]	@ float
 132 003e 06E0     		b	.L10
 133              	.L7:
 341:main.c        ****         //good_dx_count++ ;
 342:main.c        ****     }
 343:main.c        ****     
 344:main.c        ****     else
 345:main.c        ****     {
 346:main.c        ****         distance =  prev_distance; 
 134              		.loc 1 346 0
 135 0040 0C4B     		ldr	r3, .L14
 136 0042 1A69     		ldr	r2, [r3, #16]	@ float
 137 0044 DA60     		str	r2, [r3, #12]	@ float
 347:main.c        ****         bad_dx_count++;
 138              		.loc 1 347 0
 139 0046 0F4A     		ldr	r2, .L14+16
 140 0048 1368     		ldr	r3, [r2]
 141 004a 0133     		adds	r3, r3, #1
 142 004c 1360     		str	r3, [r2]
 143              	.L10:
 348:main.c        ****     }
 349:main.c        ****     
 350:main.c        ****     // Keep track of often wehave bad counts.
 351:main.c        ****     //percent_good_counts = 100. * (float)good_dx_count / (float)bad_dx_count  ;
 352:main.c        ****     
 353:main.c        ****     /* Print the distances on the LCD */
 354:main.c        ****     LCD_Position(0, 1);
 144              		.loc 1 354 0
 145 004e 0020     		movs	r0, #0
 146 0050 0121     		movs	r1, #1
 147 0052 FFF7FEFF 		bl	LCD_Position
 148              	.LVL9:
 355:main.c        ****     LCD_PrintString("    ");
 149              		.loc 1 355 0
 150 0056 0C48     		ldr	r0, .L14+20
 151 0058 FFF7FEFF 		bl	LCD_PrintString
 152              	.LVL10:
 356:main.c        ****     LCD_Position(0, 1);
 153              		.loc 1 356 0
 154 005c 0020     		movs	r0, #0
 155 005e 0121     		movs	r1, #1
 156 0060 FFF7FEFF 		bl	LCD_Position
 157              	.LVL11:
ARM GAS  C:\Users\rohi2\AppData\Local\Temp\ccib12mr.s 			page 10


 357:main.c        ****     LCD_PrintU32Number(distance);
 158              		.loc 1 357 0
 159 0064 034B     		ldr	r3, .L14
 160 0066 D868     		ldr	r0, [r3, #12]	@ float
 161 0068 FFF7FEFF 		bl	__aeabi_f2uiz
 162              	.LVL12:
 163 006c FFF7FEFF 		bl	LCD_PrintU32Number
 164              	.LVL13:
 165 0070 38BD     		pop	{r3, r4, r5, pc}
 166              	.L15:
 167 0072 00BF     		.align	2
 168              	.L14:
 169 0074 00000000 		.word	.LANCHOR0
 170 0078 00002440 		.word	1076101120
 171 007c 00001643 		.word	1125515264
 172 0080 0000F041 		.word	1106247680
 173 0084 00000000 		.word	bad_dx_count
 174 0088 00000000 		.word	.LC0
 175              		.cfi_endproc
 176              	.LFE89:
 177              		.size	FALLING_EDGE_1, .-FALLING_EDGE_1
 178              		.section	.text.RISING_EDGE_2,"ax",%progbits
 179              		.align	2
 180              		.global	RISING_EDGE_2
 181              		.thumb
 182              		.thumb_func
 183              		.type	RISING_EDGE_2, %function
 184              	RISING_EDGE_2:
 185              	.LFB90:
 358:main.c        **** }
 359:main.c        **** 
 360:main.c        **** //Interrupt to Stop counter2 for ultrasonic sensor2
 361:main.c        **** //This interrupt is triggered at the rising edge of the pulse response received from the ultrasonic
 362:main.c        **** CY_ISR(RISING_EDGE_2)
 363:main.c        **** {
 186              		.loc 1 363 0
 187              		.cfi_startproc
 188              		@ args = 0, pretend = 0, frame = 0
 189              		@ frame_needed = 0, uses_anonymous_args = 0
 190 0000 08B5     		push	{r3, lr}
 191              		.cfi_def_cfa_offset 8
 192              		.cfi_offset 3, -8
 193              		.cfi_offset 14, -4
 364:main.c        ****     /* The echo pin of the ISR sends back a pulse proportional to the distnce */
 365:main.c        ****     /* Use a counter to measure the pulse width, Distance can be derived from this pulse width */
 366:main.c        ****     Counter_2_Start();
 194              		.loc 1 366 0
 195 0002 FFF7FEFF 		bl	Counter_2_Start
 196              	.LVL14:
 197 0006 08BD     		pop	{r3, pc}
 198              		.cfi_endproc
 199              	.LFE90:
 200              		.size	RISING_EDGE_2, .-RISING_EDGE_2
 201              		.section	.text.yaw_step1,"ax",%progbits
 202              		.align	2
 203              		.global	yaw_step1
 204              		.thumb
ARM GAS  C:\Users\rohi2\AppData\Local\Temp\ccib12mr.s 			page 11


 205              		.thumb_func
 206              		.type	yaw_step1, %function
 207              	yaw_step1:
 208              	.LFB63:
  74:main.c        ****     Pin_A1_Write(1);
 209              		.loc 1 74 0
 210              		.cfi_startproc
 211              		@ args = 0, pretend = 0, frame = 0
 212              		@ frame_needed = 0, uses_anonymous_args = 0
 213 0000 08B5     		push	{r3, lr}
 214              		.cfi_def_cfa_offset 8
 215              		.cfi_offset 3, -8
 216              		.cfi_offset 14, -4
  75:main.c        ****     Pin_A2_Write(0);
 217              		.loc 1 75 0
 218 0002 0120     		movs	r0, #1
 219 0004 FFF7FEFF 		bl	Pin_A1_Write
 220              	.LVL15:
  76:main.c        ****     Pin_B1_Write(0);
 221              		.loc 1 76 0
 222 0008 0020     		movs	r0, #0
 223 000a FFF7FEFF 		bl	Pin_A2_Write
 224              	.LVL16:
  77:main.c        ****     Pin_B2_Write(0);   
 225              		.loc 1 77 0
 226 000e 0020     		movs	r0, #0
 227 0010 FFF7FEFF 		bl	Pin_B1_Write
 228              	.LVL17:
  78:main.c        **** }
 229              		.loc 1 78 0
 230 0014 0020     		movs	r0, #0
 231 0016 FFF7FEFF 		bl	Pin_B2_Write
 232              	.LVL18:
 233 001a 08BD     		pop	{r3, pc}
 234              		.cfi_endproc
 235              	.LFE63:
 236              		.size	yaw_step1, .-yaw_step1
 237              		.section	.text.yaw_step2,"ax",%progbits
 238              		.align	2
 239              		.global	yaw_step2
 240              		.thumb
 241              		.thumb_func
 242              		.type	yaw_step2, %function
 243              	yaw_step2:
 244              	.LFB64:
  81:main.c        ****     Pin_A1_Write(1);
 245              		.loc 1 81 0
 246              		.cfi_startproc
 247              		@ args = 0, pretend = 0, frame = 0
 248              		@ frame_needed = 0, uses_anonymous_args = 0
 249 0000 08B5     		push	{r3, lr}
 250              		.cfi_def_cfa_offset 8
 251              		.cfi_offset 3, -8
 252              		.cfi_offset 14, -4
  82:main.c        ****     Pin_A2_Write(0);
 253              		.loc 1 82 0
 254 0002 0120     		movs	r0, #1
ARM GAS  C:\Users\rohi2\AppData\Local\Temp\ccib12mr.s 			page 12


 255 0004 FFF7FEFF 		bl	Pin_A1_Write
 256              	.LVL19:
  83:main.c        ****     Pin_B1_Write(1);
 257              		.loc 1 83 0
 258 0008 0020     		movs	r0, #0
 259 000a FFF7FEFF 		bl	Pin_A2_Write
 260              	.LVL20:
  84:main.c        ****     Pin_B2_Write(0);   
 261              		.loc 1 84 0
 262 000e 0120     		movs	r0, #1
 263 0010 FFF7FEFF 		bl	Pin_B1_Write
 264              	.LVL21:
  85:main.c        **** }
 265              		.loc 1 85 0
 266 0014 0020     		movs	r0, #0
 267 0016 FFF7FEFF 		bl	Pin_B2_Write
 268              	.LVL22:
 269 001a 08BD     		pop	{r3, pc}
 270              		.cfi_endproc
 271              	.LFE64:
 272              		.size	yaw_step2, .-yaw_step2
 273              		.section	.text.yaw_step3,"ax",%progbits
 274              		.align	2
 275              		.global	yaw_step3
 276              		.thumb
 277              		.thumb_func
 278              		.type	yaw_step3, %function
 279              	yaw_step3:
 280              	.LFB65:
  88:main.c        ****     Pin_A1_Write(0);
 281              		.loc 1 88 0
 282              		.cfi_startproc
 283              		@ args = 0, pretend = 0, frame = 0
 284              		@ frame_needed = 0, uses_anonymous_args = 0
 285 0000 08B5     		push	{r3, lr}
 286              		.cfi_def_cfa_offset 8
 287              		.cfi_offset 3, -8
 288              		.cfi_offset 14, -4
  89:main.c        ****     Pin_A2_Write(0);
 289              		.loc 1 89 0
 290 0002 0020     		movs	r0, #0
 291 0004 FFF7FEFF 		bl	Pin_A1_Write
 292              	.LVL23:
  90:main.c        ****     Pin_B1_Write(1);
 293              		.loc 1 90 0
 294 0008 0020     		movs	r0, #0
 295 000a FFF7FEFF 		bl	Pin_A2_Write
 296              	.LVL24:
  91:main.c        ****     Pin_B2_Write(0);   
 297              		.loc 1 91 0
 298 000e 0120     		movs	r0, #1
 299 0010 FFF7FEFF 		bl	Pin_B1_Write
 300              	.LVL25:
  92:main.c        **** }
 301              		.loc 1 92 0
 302 0014 0020     		movs	r0, #0
 303 0016 FFF7FEFF 		bl	Pin_B2_Write
ARM GAS  C:\Users\rohi2\AppData\Local\Temp\ccib12mr.s 			page 13


 304              	.LVL26:
 305 001a 08BD     		pop	{r3, pc}
 306              		.cfi_endproc
 307              	.LFE65:
 308              		.size	yaw_step3, .-yaw_step3
 309              		.section	.text.yaw_step4,"ax",%progbits
 310              		.align	2
 311              		.global	yaw_step4
 312              		.thumb
 313              		.thumb_func
 314              		.type	yaw_step4, %function
 315              	yaw_step4:
 316              	.LFB66:
  95:main.c        ****     Pin_A1_Write(0);
 317              		.loc 1 95 0
 318              		.cfi_startproc
 319              		@ args = 0, pretend = 0, frame = 0
 320              		@ frame_needed = 0, uses_anonymous_args = 0
 321 0000 08B5     		push	{r3, lr}
 322              		.cfi_def_cfa_offset 8
 323              		.cfi_offset 3, -8
 324              		.cfi_offset 14, -4
  96:main.c        ****     Pin_A2_Write(1);
 325              		.loc 1 96 0
 326 0002 0020     		movs	r0, #0
 327 0004 FFF7FEFF 		bl	Pin_A1_Write
 328              	.LVL27:
  97:main.c        ****     Pin_B1_Write(1);
 329              		.loc 1 97 0
 330 0008 0120     		movs	r0, #1
 331 000a FFF7FEFF 		bl	Pin_A2_Write
 332              	.LVL28:
  98:main.c        ****     Pin_B2_Write(0);   
 333              		.loc 1 98 0
 334 000e 0120     		movs	r0, #1
 335 0010 FFF7FEFF 		bl	Pin_B1_Write
 336              	.LVL29:
  99:main.c        **** }
 337              		.loc 1 99 0
 338 0014 0020     		movs	r0, #0
 339 0016 FFF7FEFF 		bl	Pin_B2_Write
 340              	.LVL30:
 341 001a 08BD     		pop	{r3, pc}
 342              		.cfi_endproc
 343              	.LFE66:
 344              		.size	yaw_step4, .-yaw_step4
 345              		.section	.text.yaw_step5,"ax",%progbits
 346              		.align	2
 347              		.global	yaw_step5
 348              		.thumb
 349              		.thumb_func
 350              		.type	yaw_step5, %function
 351              	yaw_step5:
 352              	.LFB67:
 102:main.c        ****     Pin_A1_Write(0);
 353              		.loc 1 102 0
 354              		.cfi_startproc
ARM GAS  C:\Users\rohi2\AppData\Local\Temp\ccib12mr.s 			page 14


 355              		@ args = 0, pretend = 0, frame = 0
 356              		@ frame_needed = 0, uses_anonymous_args = 0
 357 0000 08B5     		push	{r3, lr}
 358              		.cfi_def_cfa_offset 8
 359              		.cfi_offset 3, -8
 360              		.cfi_offset 14, -4
 103:main.c        ****     Pin_A2_Write(1);
 361              		.loc 1 103 0
 362 0002 0020     		movs	r0, #0
 363 0004 FFF7FEFF 		bl	Pin_A1_Write
 364              	.LVL31:
 104:main.c        ****     Pin_B1_Write(0);
 365              		.loc 1 104 0
 366 0008 0120     		movs	r0, #1
 367 000a FFF7FEFF 		bl	Pin_A2_Write
 368              	.LVL32:
 105:main.c        ****     Pin_B2_Write(0);   
 369              		.loc 1 105 0
 370 000e 0020     		movs	r0, #0
 371 0010 FFF7FEFF 		bl	Pin_B1_Write
 372              	.LVL33:
 106:main.c        **** }
 373              		.loc 1 106 0
 374 0014 0020     		movs	r0, #0
 375 0016 FFF7FEFF 		bl	Pin_B2_Write
 376              	.LVL34:
 377 001a 08BD     		pop	{r3, pc}
 378              		.cfi_endproc
 379              	.LFE67:
 380              		.size	yaw_step5, .-yaw_step5
 381              		.section	.text.yaw_step6,"ax",%progbits
 382              		.align	2
 383              		.global	yaw_step6
 384              		.thumb
 385              		.thumb_func
 386              		.type	yaw_step6, %function
 387              	yaw_step6:
 388              	.LFB68:
 109:main.c        ****     Pin_A1_Write(0);
 389              		.loc 1 109 0
 390              		.cfi_startproc
 391              		@ args = 0, pretend = 0, frame = 0
 392              		@ frame_needed = 0, uses_anonymous_args = 0
 393 0000 08B5     		push	{r3, lr}
 394              		.cfi_def_cfa_offset 8
 395              		.cfi_offset 3, -8
 396              		.cfi_offset 14, -4
 110:main.c        ****     Pin_A2_Write(1);
 397              		.loc 1 110 0
 398 0002 0020     		movs	r0, #0
 399 0004 FFF7FEFF 		bl	Pin_A1_Write
 400              	.LVL35:
 111:main.c        ****     Pin_B1_Write(0);
 401              		.loc 1 111 0
 402 0008 0120     		movs	r0, #1
 403 000a FFF7FEFF 		bl	Pin_A2_Write
 404              	.LVL36:
ARM GAS  C:\Users\rohi2\AppData\Local\Temp\ccib12mr.s 			page 15


 112:main.c        ****     Pin_B2_Write(1);   
 405              		.loc 1 112 0
 406 000e 0020     		movs	r0, #0
 407 0010 FFF7FEFF 		bl	Pin_B1_Write
 408              	.LVL37:
 113:main.c        **** }
 409              		.loc 1 113 0
 410 0014 0120     		movs	r0, #1
 411 0016 FFF7FEFF 		bl	Pin_B2_Write
 412              	.LVL38:
 413 001a 08BD     		pop	{r3, pc}
 414              		.cfi_endproc
 415              	.LFE68:
 416              		.size	yaw_step6, .-yaw_step6
 417              		.section	.text.yaw_step7,"ax",%progbits
 418              		.align	2
 419              		.global	yaw_step7
 420              		.thumb
 421              		.thumb_func
 422              		.type	yaw_step7, %function
 423              	yaw_step7:
 424              	.LFB69:
 116:main.c        ****     Pin_A1_Write(0);
 425              		.loc 1 116 0
 426              		.cfi_startproc
 427              		@ args = 0, pretend = 0, frame = 0
 428              		@ frame_needed = 0, uses_anonymous_args = 0
 429 0000 08B5     		push	{r3, lr}
 430              		.cfi_def_cfa_offset 8
 431              		.cfi_offset 3, -8
 432              		.cfi_offset 14, -4
 117:main.c        ****     Pin_A2_Write(0);
 433              		.loc 1 117 0
 434 0002 0020     		movs	r0, #0
 435 0004 FFF7FEFF 		bl	Pin_A1_Write
 436              	.LVL39:
 118:main.c        ****     Pin_B1_Write(0);
 437              		.loc 1 118 0
 438 0008 0020     		movs	r0, #0
 439 000a FFF7FEFF 		bl	Pin_A2_Write
 440              	.LVL40:
 119:main.c        ****     Pin_B2_Write(1);   
 441              		.loc 1 119 0
 442 000e 0020     		movs	r0, #0
 443 0010 FFF7FEFF 		bl	Pin_B1_Write
 444              	.LVL41:
 120:main.c        **** }
 445              		.loc 1 120 0
 446 0014 0120     		movs	r0, #1
 447 0016 FFF7FEFF 		bl	Pin_B2_Write
 448              	.LVL42:
 449 001a 08BD     		pop	{r3, pc}
 450              		.cfi_endproc
 451              	.LFE69:
 452              		.size	yaw_step7, .-yaw_step7
 453              		.section	.text.yaw_step8,"ax",%progbits
 454              		.align	2
ARM GAS  C:\Users\rohi2\AppData\Local\Temp\ccib12mr.s 			page 16


 455              		.global	yaw_step8
 456              		.thumb
 457              		.thumb_func
 458              		.type	yaw_step8, %function
 459              	yaw_step8:
 460              	.LFB70:
 123:main.c        ****     Pin_A1_Write(1);
 461              		.loc 1 123 0
 462              		.cfi_startproc
 463              		@ args = 0, pretend = 0, frame = 0
 464              		@ frame_needed = 0, uses_anonymous_args = 0
 465 0000 08B5     		push	{r3, lr}
 466              		.cfi_def_cfa_offset 8
 467              		.cfi_offset 3, -8
 468              		.cfi_offset 14, -4
 124:main.c        ****     Pin_A2_Write(0);
 469              		.loc 1 124 0
 470 0002 0120     		movs	r0, #1
 471 0004 FFF7FEFF 		bl	Pin_A1_Write
 472              	.LVL43:
 125:main.c        ****     Pin_B1_Write(0);
 473              		.loc 1 125 0
 474 0008 0020     		movs	r0, #0
 475 000a FFF7FEFF 		bl	Pin_A2_Write
 476              	.LVL44:
 126:main.c        ****     Pin_B2_Write(1);   
 477              		.loc 1 126 0
 478 000e 0020     		movs	r0, #0
 479 0010 FFF7FEFF 		bl	Pin_B1_Write
 480              	.LVL45:
 127:main.c        **** }
 481              		.loc 1 127 0
 482 0014 0120     		movs	r0, #1
 483 0016 FFF7FEFF 		bl	Pin_B2_Write
 484              	.LVL46:
 485 001a 08BD     		pop	{r3, pc}
 486              		.cfi_endproc
 487              	.LFE70:
 488              		.size	yaw_step8, .-yaw_step8
 489              		.section	.text.yaw_clockwise,"ax",%progbits
 490              		.align	2
 491              		.global	yaw_clockwise
 492              		.thumb
 493              		.thumb_func
 494              		.type	yaw_clockwise, %function
 495              	yaw_clockwise:
 496              	.LFB71:
 131:main.c        ****     yaw_step1(); 
 497              		.loc 1 131 0
 498              		.cfi_startproc
 499              		@ args = 0, pretend = 0, frame = 0
 500              		@ frame_needed = 0, uses_anonymous_args = 0
 501 0000 10B5     		push	{r4, lr}
 502              		.cfi_def_cfa_offset 8
 503              		.cfi_offset 4, -8
 504              		.cfi_offset 14, -4
 132:main.c        ****     CyDelayUs(delay);
ARM GAS  C:\Users\rohi2\AppData\Local\Temp\ccib12mr.s 			page 17


 505              		.loc 1 132 0
 506 0002 FFF7FEFF 		bl	yaw_step1
 507              	.LVL47:
 133:main.c        ****     yaw_step2();
 508              		.loc 1 133 0
 509 0006 144C     		ldr	r4, .L36
 510 0008 2088     		ldrh	r0, [r4]
 511 000a FFF7FEFF 		bl	CyDelayUs
 512              	.LVL48:
 134:main.c        ****     CyDelayUs(delay);
 513              		.loc 1 134 0
 514 000e FFF7FEFF 		bl	yaw_step2
 515              	.LVL49:
 135:main.c        ****     yaw_step3();
 516              		.loc 1 135 0
 517 0012 2088     		ldrh	r0, [r4]
 518 0014 FFF7FEFF 		bl	CyDelayUs
 519              	.LVL50:
 136:main.c        ****     CyDelayUs(delay);
 520              		.loc 1 136 0
 521 0018 FFF7FEFF 		bl	yaw_step3
 522              	.LVL51:
 137:main.c        ****     yaw_step4();
 523              		.loc 1 137 0
 524 001c 2088     		ldrh	r0, [r4]
 525 001e FFF7FEFF 		bl	CyDelayUs
 526              	.LVL52:
 138:main.c        ****     CyDelayUs(delay);
 527              		.loc 1 138 0
 528 0022 FFF7FEFF 		bl	yaw_step4
 529              	.LVL53:
 139:main.c        ****     yaw_step5(); 
 530              		.loc 1 139 0
 531 0026 2088     		ldrh	r0, [r4]
 532 0028 FFF7FEFF 		bl	CyDelayUs
 533              	.LVL54:
 140:main.c        ****     CyDelayUs(delay);
 534              		.loc 1 140 0
 535 002c FFF7FEFF 		bl	yaw_step5
 536              	.LVL55:
 141:main.c        ****     yaw_step6();
 537              		.loc 1 141 0
 538 0030 2088     		ldrh	r0, [r4]
 539 0032 FFF7FEFF 		bl	CyDelayUs
 540              	.LVL56:
 142:main.c        ****     CyDelayUs(delay);
 541              		.loc 1 142 0
 542 0036 FFF7FEFF 		bl	yaw_step6
 543              	.LVL57:
 143:main.c        ****     yaw_step7();
 544              		.loc 1 143 0
 545 003a 2088     		ldrh	r0, [r4]
 546 003c FFF7FEFF 		bl	CyDelayUs
 547              	.LVL58:
 144:main.c        ****     CyDelayUs(delay);
 548              		.loc 1 144 0
 549 0040 FFF7FEFF 		bl	yaw_step7
ARM GAS  C:\Users\rohi2\AppData\Local\Temp\ccib12mr.s 			page 18


 550              	.LVL59:
 145:main.c        ****     yaw_step8();
 551              		.loc 1 145 0
 552 0044 2088     		ldrh	r0, [r4]
 553 0046 FFF7FEFF 		bl	CyDelayUs
 554              	.LVL60:
 146:main.c        ****     CyDelayUs(delay);
 555              		.loc 1 146 0
 556 004a FFF7FEFF 		bl	yaw_step8
 557              	.LVL61:
 147:main.c        **** }
 558              		.loc 1 147 0
 559 004e 2088     		ldrh	r0, [r4]
 560 0050 FFF7FEFF 		bl	CyDelayUs
 561              	.LVL62:
 562 0054 10BD     		pop	{r4, pc}
 563              	.L37:
 564 0056 00BF     		.align	2
 565              	.L36:
 566 0058 00000000 		.word	.LANCHOR1
 567              		.cfi_endproc
 568              	.LFE71:
 569              		.size	yaw_clockwise, .-yaw_clockwise
 570              		.section	.text.yaw_counter_clockwise,"ax",%progbits
 571              		.align	2
 572              		.global	yaw_counter_clockwise
 573              		.thumb
 574              		.thumb_func
 575              		.type	yaw_counter_clockwise, %function
 576              	yaw_counter_clockwise:
 577              	.LFB72:
 151:main.c        ****     yaw_step7(); 
 578              		.loc 1 151 0
 579              		.cfi_startproc
 580              		@ args = 0, pretend = 0, frame = 0
 581              		@ frame_needed = 0, uses_anonymous_args = 0
 582 0000 10B5     		push	{r4, lr}
 583              		.cfi_def_cfa_offset 8
 584              		.cfi_offset 4, -8
 585              		.cfi_offset 14, -4
 152:main.c        ****     CyDelayUs(delay);
 586              		.loc 1 152 0
 587 0002 FFF7FEFF 		bl	yaw_step7
 588              	.LVL63:
 153:main.c        ****     yaw_step6();
 589              		.loc 1 153 0
 590 0006 144C     		ldr	r4, .L40
 591 0008 2088     		ldrh	r0, [r4]
 592 000a FFF7FEFF 		bl	CyDelayUs
 593              	.LVL64:
 154:main.c        ****     CyDelayUs(delay);
 594              		.loc 1 154 0
 595 000e FFF7FEFF 		bl	yaw_step6
 596              	.LVL65:
 155:main.c        ****     yaw_step5();
 597              		.loc 1 155 0
 598 0012 2088     		ldrh	r0, [r4]
ARM GAS  C:\Users\rohi2\AppData\Local\Temp\ccib12mr.s 			page 19


 599 0014 FFF7FEFF 		bl	CyDelayUs
 600              	.LVL66:
 156:main.c        ****     CyDelayUs(delay);
 601              		.loc 1 156 0
 602 0018 FFF7FEFF 		bl	yaw_step5
 603              	.LVL67:
 157:main.c        ****     yaw_step4();
 604              		.loc 1 157 0
 605 001c 2088     		ldrh	r0, [r4]
 606 001e FFF7FEFF 		bl	CyDelayUs
 607              	.LVL68:
 158:main.c        ****     CyDelayUs(delay);
 608              		.loc 1 158 0
 609 0022 FFF7FEFF 		bl	yaw_step4
 610              	.LVL69:
 159:main.c        ****     yaw_step3(); 
 611              		.loc 1 159 0
 612 0026 2088     		ldrh	r0, [r4]
 613 0028 FFF7FEFF 		bl	CyDelayUs
 614              	.LVL70:
 160:main.c        ****     CyDelayUs(delay);
 615              		.loc 1 160 0
 616 002c FFF7FEFF 		bl	yaw_step3
 617              	.LVL71:
 161:main.c        ****     yaw_step2();
 618              		.loc 1 161 0
 619 0030 2088     		ldrh	r0, [r4]
 620 0032 FFF7FEFF 		bl	CyDelayUs
 621              	.LVL72:
 162:main.c        ****     CyDelayUs(delay);
 622              		.loc 1 162 0
 623 0036 FFF7FEFF 		bl	yaw_step2
 624              	.LVL73:
 163:main.c        ****     yaw_step1();
 625              		.loc 1 163 0
 626 003a 2088     		ldrh	r0, [r4]
 627 003c FFF7FEFF 		bl	CyDelayUs
 628              	.LVL74:
 164:main.c        ****     CyDelayUs(delay);
 629              		.loc 1 164 0
 630 0040 FFF7FEFF 		bl	yaw_step1
 631              	.LVL75:
 165:main.c        ****     yaw_step8();
 632              		.loc 1 165 0
 633 0044 2088     		ldrh	r0, [r4]
 634 0046 FFF7FEFF 		bl	CyDelayUs
 635              	.LVL76:
 166:main.c        ****     CyDelayUs(delay);
 636              		.loc 1 166 0
 637 004a FFF7FEFF 		bl	yaw_step8
 638              	.LVL77:
 167:main.c        **** }
 639              		.loc 1 167 0
 640 004e 2088     		ldrh	r0, [r4]
 641 0050 FFF7FEFF 		bl	CyDelayUs
 642              	.LVL78:
 643 0054 10BD     		pop	{r4, pc}
ARM GAS  C:\Users\rohi2\AppData\Local\Temp\ccib12mr.s 			page 20


 644              	.L41:
 645 0056 00BF     		.align	2
 646              	.L40:
 647 0058 00000000 		.word	.LANCHOR1
 648              		.cfi_endproc
 649              	.LFE72:
 650              		.size	yaw_counter_clockwise, .-yaw_counter_clockwise
 651              		.section	.text.step1,"ax",%progbits
 652              		.align	2
 653              		.global	step1
 654              		.thumb
 655              		.thumb_func
 656              		.type	step1, %function
 657              	step1:
 658              	.LFB73:
 174:main.c        ****     Pin_A1_Write(0);
 659              		.loc 1 174 0
 660              		.cfi_startproc
 661              		@ args = 0, pretend = 0, frame = 0
 662              		@ frame_needed = 0, uses_anonymous_args = 0
 663 0000 08B5     		push	{r3, lr}
 664              		.cfi_def_cfa_offset 8
 665              		.cfi_offset 3, -8
 666              		.cfi_offset 14, -4
 175:main.c        ****     Pin_A2_Write(1);
 667              		.loc 1 175 0
 668 0002 0020     		movs	r0, #0
 669 0004 FFF7FEFF 		bl	Pin_A1_Write
 670              	.LVL79:
 176:main.c        ****     Pin_B1_Write(1);
 671              		.loc 1 176 0
 672 0008 0120     		movs	r0, #1
 673 000a FFF7FEFF 		bl	Pin_A2_Write
 674              	.LVL80:
 177:main.c        ****     Pin_B2_Write(0);
 675              		.loc 1 177 0
 676 000e 0120     		movs	r0, #1
 677 0010 FFF7FEFF 		bl	Pin_B1_Write
 678              	.LVL81:
 178:main.c        **** }
 679              		.loc 1 178 0
 680 0014 0020     		movs	r0, #0
 681 0016 FFF7FEFF 		bl	Pin_B2_Write
 682              	.LVL82:
 683 001a 08BD     		pop	{r3, pc}
 684              		.cfi_endproc
 685              	.LFE73:
 686              		.size	step1, .-step1
 687              		.section	.text.step2,"ax",%progbits
 688              		.align	2
 689              		.global	step2
 690              		.thumb
 691              		.thumb_func
 692              		.type	step2, %function
 693              	step2:
 694              	.LFB74:
 182:main.c        ****     Pin_A1_Write(0);
ARM GAS  C:\Users\rohi2\AppData\Local\Temp\ccib12mr.s 			page 21


 695              		.loc 1 182 0
 696              		.cfi_startproc
 697              		@ args = 0, pretend = 0, frame = 0
 698              		@ frame_needed = 0, uses_anonymous_args = 0
 699 0000 08B5     		push	{r3, lr}
 700              		.cfi_def_cfa_offset 8
 701              		.cfi_offset 3, -8
 702              		.cfi_offset 14, -4
 183:main.c        ****     Pin_A2_Write(1);
 703              		.loc 1 183 0
 704 0002 0020     		movs	r0, #0
 705 0004 FFF7FEFF 		bl	Pin_A1_Write
 706              	.LVL83:
 184:main.c        ****     Pin_B1_Write(0);
 707              		.loc 1 184 0
 708 0008 0120     		movs	r0, #1
 709 000a FFF7FEFF 		bl	Pin_A2_Write
 710              	.LVL84:
 185:main.c        ****     Pin_B2_Write(1);
 711              		.loc 1 185 0
 712 000e 0020     		movs	r0, #0
 713 0010 FFF7FEFF 		bl	Pin_B1_Write
 714              	.LVL85:
 186:main.c        **** }
 715              		.loc 1 186 0
 716 0014 0120     		movs	r0, #1
 717 0016 FFF7FEFF 		bl	Pin_B2_Write
 718              	.LVL86:
 719 001a 08BD     		pop	{r3, pc}
 720              		.cfi_endproc
 721              	.LFE74:
 722              		.size	step2, .-step2
 723              		.section	.text.step3,"ax",%progbits
 724              		.align	2
 725              		.global	step3
 726              		.thumb
 727              		.thumb_func
 728              		.type	step3, %function
 729              	step3:
 730              	.LFB75:
 190:main.c        ****     Pin_A1_Write(1);
 731              		.loc 1 190 0
 732              		.cfi_startproc
 733              		@ args = 0, pretend = 0, frame = 0
 734              		@ frame_needed = 0, uses_anonymous_args = 0
 735 0000 08B5     		push	{r3, lr}
 736              		.cfi_def_cfa_offset 8
 737              		.cfi_offset 3, -8
 738              		.cfi_offset 14, -4
 191:main.c        ****     Pin_A2_Write(0);
 739              		.loc 1 191 0
 740 0002 0120     		movs	r0, #1
 741 0004 FFF7FEFF 		bl	Pin_A1_Write
 742              	.LVL87:
 192:main.c        ****     Pin_B1_Write(0);
 743              		.loc 1 192 0
 744 0008 0020     		movs	r0, #0
ARM GAS  C:\Users\rohi2\AppData\Local\Temp\ccib12mr.s 			page 22


 745 000a FFF7FEFF 		bl	Pin_A2_Write
 746              	.LVL88:
 193:main.c        ****     Pin_B2_Write(1);
 747              		.loc 1 193 0
 748 000e 0020     		movs	r0, #0
 749 0010 FFF7FEFF 		bl	Pin_B1_Write
 750              	.LVL89:
 194:main.c        **** }
 751              		.loc 1 194 0
 752 0014 0120     		movs	r0, #1
 753 0016 FFF7FEFF 		bl	Pin_B2_Write
 754              	.LVL90:
 755 001a 08BD     		pop	{r3, pc}
 756              		.cfi_endproc
 757              	.LFE75:
 758              		.size	step3, .-step3
 759              		.section	.text.step4,"ax",%progbits
 760              		.align	2
 761              		.global	step4
 762              		.thumb
 763              		.thumb_func
 764              		.type	step4, %function
 765              	step4:
 766              	.LFB76:
 197:main.c        ****     Pin_A1_Write(1);
 767              		.loc 1 197 0
 768              		.cfi_startproc
 769              		@ args = 0, pretend = 0, frame = 0
 770              		@ frame_needed = 0, uses_anonymous_args = 0
 771 0000 08B5     		push	{r3, lr}
 772              		.cfi_def_cfa_offset 8
 773              		.cfi_offset 3, -8
 774              		.cfi_offset 14, -4
 198:main.c        ****     Pin_A2_Write(0);
 775              		.loc 1 198 0
 776 0002 0120     		movs	r0, #1
 777 0004 FFF7FEFF 		bl	Pin_A1_Write
 778              	.LVL91:
 199:main.c        ****     Pin_B1_Write(1);
 779              		.loc 1 199 0
 780 0008 0020     		movs	r0, #0
 781 000a FFF7FEFF 		bl	Pin_A2_Write
 782              	.LVL92:
 200:main.c        ****     Pin_B2_Write(0);
 783              		.loc 1 200 0
 784 000e 0120     		movs	r0, #1
 785 0010 FFF7FEFF 		bl	Pin_B1_Write
 786              	.LVL93:
 201:main.c        **** }
 787              		.loc 1 201 0
 788 0014 0020     		movs	r0, #0
 789 0016 FFF7FEFF 		bl	Pin_B2_Write
 790              	.LVL94:
 791 001a 08BD     		pop	{r3, pc}
 792              		.cfi_endproc
 793              	.LFE76:
 794              		.size	step4, .-step4
ARM GAS  C:\Users\rohi2\AppData\Local\Temp\ccib12mr.s 			page 23


 795              		.section	.text.step1_1,"ax",%progbits
 796              		.align	2
 797              		.global	step1_1
 798              		.thumb
 799              		.thumb_func
 800              		.type	step1_1, %function
 801              	step1_1:
 802              	.LFB77:
 206:main.c        ****     Pin_A1_1_Write(0);
 803              		.loc 1 206 0
 804              		.cfi_startproc
 805              		@ args = 0, pretend = 0, frame = 0
 806              		@ frame_needed = 0, uses_anonymous_args = 0
 807 0000 08B5     		push	{r3, lr}
 808              		.cfi_def_cfa_offset 8
 809              		.cfi_offset 3, -8
 810              		.cfi_offset 14, -4
 207:main.c        ****     Pin_A2_1_Write(1);
 811              		.loc 1 207 0
 812 0002 0020     		movs	r0, #0
 813 0004 FFF7FEFF 		bl	Pin_A1_1_Write
 814              	.LVL95:
 208:main.c        ****     Pin_B1_1_Write(1);
 815              		.loc 1 208 0
 816 0008 0120     		movs	r0, #1
 817 000a FFF7FEFF 		bl	Pin_A2_1_Write
 818              	.LVL96:
 209:main.c        ****     Pin_B2_1_Write(0);
 819              		.loc 1 209 0
 820 000e 0120     		movs	r0, #1
 821 0010 FFF7FEFF 		bl	Pin_B1_1_Write
 822              	.LVL97:
 210:main.c        **** }
 823              		.loc 1 210 0
 824 0014 0020     		movs	r0, #0
 825 0016 FFF7FEFF 		bl	Pin_B2_1_Write
 826              	.LVL98:
 827 001a 08BD     		pop	{r3, pc}
 828              		.cfi_endproc
 829              	.LFE77:
 830              		.size	step1_1, .-step1_1
 831              		.section	.text.step2_1,"ax",%progbits
 832              		.align	2
 833              		.global	step2_1
 834              		.thumb
 835              		.thumb_func
 836              		.type	step2_1, %function
 837              	step2_1:
 838              	.LFB78:
 214:main.c        ****     Pin_A1_1_Write(0);
 839              		.loc 1 214 0
 840              		.cfi_startproc
 841              		@ args = 0, pretend = 0, frame = 0
 842              		@ frame_needed = 0, uses_anonymous_args = 0
 843 0000 08B5     		push	{r3, lr}
 844              		.cfi_def_cfa_offset 8
 845              		.cfi_offset 3, -8
ARM GAS  C:\Users\rohi2\AppData\Local\Temp\ccib12mr.s 			page 24


 846              		.cfi_offset 14, -4
 215:main.c        ****     Pin_A2_1_Write(1);
 847              		.loc 1 215 0
 848 0002 0020     		movs	r0, #0
 849 0004 FFF7FEFF 		bl	Pin_A1_1_Write
 850              	.LVL99:
 216:main.c        ****     Pin_B1_1_Write(0);
 851              		.loc 1 216 0
 852 0008 0120     		movs	r0, #1
 853 000a FFF7FEFF 		bl	Pin_A2_1_Write
 854              	.LVL100:
 217:main.c        ****     Pin_B2_1_Write(1);
 855              		.loc 1 217 0
 856 000e 0020     		movs	r0, #0
 857 0010 FFF7FEFF 		bl	Pin_B1_1_Write
 858              	.LVL101:
 218:main.c        **** }
 859              		.loc 1 218 0
 860 0014 0120     		movs	r0, #1
 861 0016 FFF7FEFF 		bl	Pin_B2_1_Write
 862              	.LVL102:
 863 001a 08BD     		pop	{r3, pc}
 864              		.cfi_endproc
 865              	.LFE78:
 866              		.size	step2_1, .-step2_1
 867              		.section	.text.step3_1,"ax",%progbits
 868              		.align	2
 869              		.global	step3_1
 870              		.thumb
 871              		.thumb_func
 872              		.type	step3_1, %function
 873              	step3_1:
 874              	.LFB79:
 222:main.c        ****     Pin_A1_1_Write(1);
 875              		.loc 1 222 0
 876              		.cfi_startproc
 877              		@ args = 0, pretend = 0, frame = 0
 878              		@ frame_needed = 0, uses_anonymous_args = 0
 879 0000 08B5     		push	{r3, lr}
 880              		.cfi_def_cfa_offset 8
 881              		.cfi_offset 3, -8
 882              		.cfi_offset 14, -4
 223:main.c        ****     Pin_A2_1_Write(0);
 883              		.loc 1 223 0
 884 0002 0120     		movs	r0, #1
 885 0004 FFF7FEFF 		bl	Pin_A1_1_Write
 886              	.LVL103:
 224:main.c        ****     Pin_B1_1_Write(0);
 887              		.loc 1 224 0
 888 0008 0020     		movs	r0, #0
 889 000a FFF7FEFF 		bl	Pin_A2_1_Write
 890              	.LVL104:
 225:main.c        ****     Pin_B2_1_Write(1);
 891              		.loc 1 225 0
 892 000e 0020     		movs	r0, #0
 893 0010 FFF7FEFF 		bl	Pin_B1_1_Write
 894              	.LVL105:
ARM GAS  C:\Users\rohi2\AppData\Local\Temp\ccib12mr.s 			page 25


 226:main.c        **** }
 895              		.loc 1 226 0
 896 0014 0120     		movs	r0, #1
 897 0016 FFF7FEFF 		bl	Pin_B2_1_Write
 898              	.LVL106:
 899 001a 08BD     		pop	{r3, pc}
 900              		.cfi_endproc
 901              	.LFE79:
 902              		.size	step3_1, .-step3_1
 903              		.section	.text.step4_1,"ax",%progbits
 904              		.align	2
 905              		.global	step4_1
 906              		.thumb
 907              		.thumb_func
 908              		.type	step4_1, %function
 909              	step4_1:
 910              	.LFB80:
 229:main.c        ****     Pin_A1_1_Write(1);
 911              		.loc 1 229 0
 912              		.cfi_startproc
 913              		@ args = 0, pretend = 0, frame = 0
 914              		@ frame_needed = 0, uses_anonymous_args = 0
 915 0000 08B5     		push	{r3, lr}
 916              		.cfi_def_cfa_offset 8
 917              		.cfi_offset 3, -8
 918              		.cfi_offset 14, -4
 230:main.c        ****     Pin_A2_1_Write(0);
 919              		.loc 1 230 0
 920 0002 0120     		movs	r0, #1
 921 0004 FFF7FEFF 		bl	Pin_A1_1_Write
 922              	.LVL107:
 231:main.c        ****     Pin_B1_1_Write(1);
 923              		.loc 1 231 0
 924 0008 0020     		movs	r0, #0
 925 000a FFF7FEFF 		bl	Pin_A2_1_Write
 926              	.LVL108:
 232:main.c        ****     Pin_B2_1_Write(0);
 927              		.loc 1 232 0
 928 000e 0120     		movs	r0, #1
 929 0010 FFF7FEFF 		bl	Pin_B1_1_Write
 930              	.LVL109:
 233:main.c        **** }
 931              		.loc 1 233 0
 932 0014 0020     		movs	r0, #0
 933 0016 FFF7FEFF 		bl	Pin_B2_1_Write
 934              	.LVL110:
 935 001a 08BD     		pop	{r3, pc}
 936              		.cfi_endproc
 937              	.LFE80:
 938              		.size	step4_1, .-step4_1
 939              		.section	.text.stopMotor_1,"ax",%progbits
 940              		.align	2
 941              		.global	stopMotor_1
 942              		.thumb
 943              		.thumb_func
 944              		.type	stopMotor_1, %function
 945              	stopMotor_1:
ARM GAS  C:\Users\rohi2\AppData\Local\Temp\ccib12mr.s 			page 26


 946              	.LFB81:
 239:main.c        ****     Pin_A1_1_Write(0);
 947              		.loc 1 239 0
 948              		.cfi_startproc
 949              		@ args = 0, pretend = 0, frame = 0
 950              		@ frame_needed = 0, uses_anonymous_args = 0
 951 0000 08B5     		push	{r3, lr}
 952              		.cfi_def_cfa_offset 8
 953              		.cfi_offset 3, -8
 954              		.cfi_offset 14, -4
 240:main.c        ****     Pin_A2_1_Write(0);
 955              		.loc 1 240 0
 956 0002 0020     		movs	r0, #0
 957 0004 FFF7FEFF 		bl	Pin_A1_1_Write
 958              	.LVL111:
 241:main.c        ****     Pin_B1_1_Write(0);
 959              		.loc 1 241 0
 960 0008 0020     		movs	r0, #0
 961 000a FFF7FEFF 		bl	Pin_A2_1_Write
 962              	.LVL112:
 242:main.c        ****     Pin_B2_1_Write(0);
 963              		.loc 1 242 0
 964 000e 0020     		movs	r0, #0
 965 0010 FFF7FEFF 		bl	Pin_B1_1_Write
 966              	.LVL113:
 243:main.c        ****     CyDelay(25);
 967              		.loc 1 243 0
 968 0014 0020     		movs	r0, #0
 969 0016 FFF7FEFF 		bl	Pin_B2_1_Write
 970              	.LVL114:
 244:main.c        **** }
 971              		.loc 1 244 0
 972 001a 1920     		movs	r0, #25
 973 001c FFF7FEFF 		bl	CyDelay
 974              	.LVL115:
 975 0020 08BD     		pop	{r3, pc}
 976              		.cfi_endproc
 977              	.LFE81:
 978              		.size	stopMotor_1, .-stopMotor_1
 979 0022 00BF     		.section	.text.stopMotor,"ax",%progbits
 980              		.align	2
 981              		.global	stopMotor
 982              		.thumb
 983              		.thumb_func
 984              		.type	stopMotor, %function
 985              	stopMotor:
 986              	.LFB82:
 249:main.c        ****     Pin_A1_Write(0);
 987              		.loc 1 249 0
 988              		.cfi_startproc
 989              		@ args = 0, pretend = 0, frame = 0
 990              		@ frame_needed = 0, uses_anonymous_args = 0
 991 0000 08B5     		push	{r3, lr}
 992              		.cfi_def_cfa_offset 8
 993              		.cfi_offset 3, -8
 994              		.cfi_offset 14, -4
 250:main.c        ****     Pin_A2_Write(0);
ARM GAS  C:\Users\rohi2\AppData\Local\Temp\ccib12mr.s 			page 27


 995              		.loc 1 250 0
 996 0002 0020     		movs	r0, #0
 997 0004 FFF7FEFF 		bl	Pin_A1_Write
 998              	.LVL116:
 251:main.c        ****     Pin_B1_Write(0);
 999              		.loc 1 251 0
 1000 0008 0020     		movs	r0, #0
 1001 000a FFF7FEFF 		bl	Pin_A2_Write
 1002              	.LVL117:
 252:main.c        ****     Pin_B2_Write(0);
 1003              		.loc 1 252 0
 1004 000e 0020     		movs	r0, #0
 1005 0010 FFF7FEFF 		bl	Pin_B1_Write
 1006              	.LVL118:
 253:main.c        ****     CyDelay(25);
 1007              		.loc 1 253 0
 1008 0014 0020     		movs	r0, #0
 1009 0016 FFF7FEFF 		bl	Pin_B2_Write
 1010              	.LVL119:
 254:main.c        **** }
 1011              		.loc 1 254 0
 1012 001a 1920     		movs	r0, #25
 1013 001c FFF7FEFF 		bl	CyDelay
 1014              	.LVL120:
 1015 0020 08BD     		pop	{r3, pc}
 1016              		.cfi_endproc
 1017              	.LFE82:
 1018              		.size	stopMotor, .-stopMotor
 1019 0022 00BF     		.section	.text.clockwise_1,"ax",%progbits
 1020              		.align	2
 1021              		.global	clockwise_1
 1022              		.thumb
 1023              		.thumb_func
 1024              		.type	clockwise_1, %function
 1025              	clockwise_1:
 1026              	.LFB83:
 260:main.c        ****     step1_1(); 
 1027              		.loc 1 260 0
 1028              		.cfi_startproc
 1029              		@ args = 0, pretend = 0, frame = 0
 1030              		@ frame_needed = 0, uses_anonymous_args = 0
 1031 0000 10B5     		push	{r4, lr}
 1032              		.cfi_def_cfa_offset 8
 1033              		.cfi_offset 4, -8
 1034              		.cfi_offset 14, -4
 261:main.c        ****     CyDelayUs(delay);
 1035              		.loc 1 261 0
 1036 0002 FFF7FEFF 		bl	step1_1
 1037              	.LVL121:
 262:main.c        ****     step2_1();
 1038              		.loc 1 262 0
 1039 0006 0A4C     		ldr	r4, .L64
 1040 0008 2088     		ldrh	r0, [r4]
 1041 000a FFF7FEFF 		bl	CyDelayUs
 1042              	.LVL122:
 263:main.c        ****     CyDelayUs(delay);
 1043              		.loc 1 263 0
ARM GAS  C:\Users\rohi2\AppData\Local\Temp\ccib12mr.s 			page 28


 1044 000e FFF7FEFF 		bl	step2_1
 1045              	.LVL123:
 264:main.c        ****     step3_1();
 1046              		.loc 1 264 0
 1047 0012 2088     		ldrh	r0, [r4]
 1048 0014 FFF7FEFF 		bl	CyDelayUs
 1049              	.LVL124:
 265:main.c        ****     CyDelayUs(delay);
 1050              		.loc 1 265 0
 1051 0018 FFF7FEFF 		bl	step3_1
 1052              	.LVL125:
 266:main.c        ****     step4_1();
 1053              		.loc 1 266 0
 1054 001c 2088     		ldrh	r0, [r4]
 1055 001e FFF7FEFF 		bl	CyDelayUs
 1056              	.LVL126:
 267:main.c        ****     CyDelayUs(delay);
 1057              		.loc 1 267 0
 1058 0022 FFF7FEFF 		bl	step4_1
 1059              	.LVL127:
 268:main.c        **** }
 1060              		.loc 1 268 0
 1061 0026 2088     		ldrh	r0, [r4]
 1062 0028 FFF7FEFF 		bl	CyDelayUs
 1063              	.LVL128:
 1064 002c 10BD     		pop	{r4, pc}
 1065              	.L65:
 1066 002e 00BF     		.align	2
 1067              	.L64:
 1068 0030 00000000 		.word	.LANCHOR1
 1069              		.cfi_endproc
 1070              	.LFE83:
 1071              		.size	clockwise_1, .-clockwise_1
 1072              		.section	.text.clockwise,"ax",%progbits
 1073              		.align	2
 1074              		.global	clockwise
 1075              		.thumb
 1076              		.thumb_func
 1077              		.type	clockwise, %function
 1078              	clockwise:
 1079              	.LFB84:
 273:main.c        ****     step1(); 
 1080              		.loc 1 273 0
 1081              		.cfi_startproc
 1082              		@ args = 0, pretend = 0, frame = 0
 1083              		@ frame_needed = 0, uses_anonymous_args = 0
 1084 0000 10B5     		push	{r4, lr}
 1085              		.cfi_def_cfa_offset 8
 1086              		.cfi_offset 4, -8
 1087              		.cfi_offset 14, -4
 274:main.c        ****     CyDelayUs(delay);
 1088              		.loc 1 274 0
 1089 0002 FFF7FEFF 		bl	step1
 1090              	.LVL129:
 275:main.c        ****     step2();
 1091              		.loc 1 275 0
 1092 0006 0A4C     		ldr	r4, .L68
ARM GAS  C:\Users\rohi2\AppData\Local\Temp\ccib12mr.s 			page 29


 1093 0008 2088     		ldrh	r0, [r4]
 1094 000a FFF7FEFF 		bl	CyDelayUs
 1095              	.LVL130:
 276:main.c        ****     CyDelayUs(delay);
 1096              		.loc 1 276 0
 1097 000e FFF7FEFF 		bl	step2
 1098              	.LVL131:
 277:main.c        ****     step3();
 1099              		.loc 1 277 0
 1100 0012 2088     		ldrh	r0, [r4]
 1101 0014 FFF7FEFF 		bl	CyDelayUs
 1102              	.LVL132:
 278:main.c        ****     CyDelayUs(delay);
 1103              		.loc 1 278 0
 1104 0018 FFF7FEFF 		bl	step3
 1105              	.LVL133:
 279:main.c        ****     step4();
 1106              		.loc 1 279 0
 1107 001c 2088     		ldrh	r0, [r4]
 1108 001e FFF7FEFF 		bl	CyDelayUs
 1109              	.LVL134:
 280:main.c        ****     CyDelayUs(delay);
 1110              		.loc 1 280 0
 1111 0022 FFF7FEFF 		bl	step4
 1112              	.LVL135:
 281:main.c        **** }
 1113              		.loc 1 281 0
 1114 0026 2088     		ldrh	r0, [r4]
 1115 0028 FFF7FEFF 		bl	CyDelayUs
 1116              	.LVL136:
 1117 002c 10BD     		pop	{r4, pc}
 1118              	.L69:
 1119 002e 00BF     		.align	2
 1120              	.L68:
 1121 0030 00000000 		.word	.LANCHOR1
 1122              		.cfi_endproc
 1123              	.LFE84:
 1124              		.size	clockwise, .-clockwise
 1125              		.section	.text.counter_clockwise_1,"ax",%progbits
 1126              		.align	2
 1127              		.global	counter_clockwise_1
 1128              		.thumb
 1129              		.thumb_func
 1130              		.type	counter_clockwise_1, %function
 1131              	counter_clockwise_1:
 1132              	.LFB85:
 285:main.c        ****     step3_1();
 1133              		.loc 1 285 0
 1134              		.cfi_startproc
 1135              		@ args = 0, pretend = 0, frame = 0
 1136              		@ frame_needed = 0, uses_anonymous_args = 0
 1137 0000 10B5     		push	{r4, lr}
 1138              		.cfi_def_cfa_offset 8
 1139              		.cfi_offset 4, -8
 1140              		.cfi_offset 14, -4
 286:main.c        ****     CyDelayUs(delay);
 1141              		.loc 1 286 0
ARM GAS  C:\Users\rohi2\AppData\Local\Temp\ccib12mr.s 			page 30


 1142 0002 FFF7FEFF 		bl	step3_1
 1143              	.LVL137:
 287:main.c        ****     step2_1();
 1144              		.loc 1 287 0
 1145 0006 0A4C     		ldr	r4, .L72
 1146 0008 2088     		ldrh	r0, [r4]
 1147 000a FFF7FEFF 		bl	CyDelayUs
 1148              	.LVL138:
 288:main.c        ****     CyDelayUs(delay);
 1149              		.loc 1 288 0
 1150 000e FFF7FEFF 		bl	step2_1
 1151              	.LVL139:
 289:main.c        ****     step1_1();
 1152              		.loc 1 289 0
 1153 0012 2088     		ldrh	r0, [r4]
 1154 0014 FFF7FEFF 		bl	CyDelayUs
 1155              	.LVL140:
 290:main.c        ****     CyDelayUs(delay);
 1156              		.loc 1 290 0
 1157 0018 FFF7FEFF 		bl	step1_1
 1158              	.LVL141:
 291:main.c        ****     step4_1();
 1159              		.loc 1 291 0
 1160 001c 2088     		ldrh	r0, [r4]
 1161 001e FFF7FEFF 		bl	CyDelayUs
 1162              	.LVL142:
 292:main.c        ****     CyDelayUs(delay);
 1163              		.loc 1 292 0
 1164 0022 FFF7FEFF 		bl	step4_1
 1165              	.LVL143:
 293:main.c        **** }
 1166              		.loc 1 293 0
 1167 0026 2088     		ldrh	r0, [r4]
 1168 0028 FFF7FEFF 		bl	CyDelayUs
 1169              	.LVL144:
 1170 002c 10BD     		pop	{r4, pc}
 1171              	.L73:
 1172 002e 00BF     		.align	2
 1173              	.L72:
 1174 0030 00000000 		.word	.LANCHOR1
 1175              		.cfi_endproc
 1176              	.LFE85:
 1177              		.size	counter_clockwise_1, .-counter_clockwise_1
 1178              		.global	__aeabi_fsub
 1179              		.global	__aeabi_f2iz
 1180              		.section	.text.FALLING_EDGE_2,"ax",%progbits
 1181              		.align	2
 1182              		.global	FALLING_EDGE_2
 1183              		.thumb
 1184              		.thumb_func
 1185              		.type	FALLING_EDGE_2, %function
 1186              	FALLING_EDGE_2:
 1187              	.LFB91:
 367:main.c        **** }
 368:main.c        **** 
 369:main.c        **** //Interrupt to Stop counter1 for ultrasonic 1
 370:main.c        **** CY_ISR(FALLING_EDGE_2)
ARM GAS  C:\Users\rohi2\AppData\Local\Temp\ccib12mr.s 			page 31


 371:main.c        **** {
 1188              		.loc 1 371 0
 1189              		.cfi_startproc
 1190              		@ args = 0, pretend = 0, frame = 0
 1191              		@ frame_needed = 0, uses_anonymous_args = 0
 1192 0000 38B5     		push	{r3, r4, r5, lr}
 1193              		.cfi_def_cfa_offset 16
 1194              		.cfi_offset 3, -16
 1195              		.cfi_offset 4, -12
 1196              		.cfi_offset 5, -8
 1197              		.cfi_offset 14, -4
 372:main.c        ****     /* Stop the counter, read its content, which indirectly translates to the pulse width */
 373:main.c        ****     /* Distance information can be obtained from the pulse width */
 374:main.c        ****     Counter_2_Stop();
 1198              		.loc 1 374 0
 1199 0002 FFF7FEFF 		bl	Counter_2_Stop
 1200              	.LVL145:
 375:main.c        ****     count2 = Counter_2_ReadCounter();
 1201              		.loc 1 375 0
 1202 0006 FFF7FEFF 		bl	Counter_2_ReadCounter
 1203              	.LVL146:
 1204 000a 694C     		ldr	r4, .L97
 1205 000c 2060     		str	r0, [r4]
 376:main.c        ****     Counter_2_WriteCounter(0);
 1206              		.loc 1 376 0
 1207 000e 0020     		movs	r0, #0
 1208 0010 FFF7FEFF 		bl	Counter_2_WriteCounter
 1209              	.LVL147:
 377:main.c        ****     
 378:main.c        ****     /* Convert the pulse width to distance in cm */
 379:main.c        ****     distance2 = (float)(count2 / 10.0);
 1210              		.loc 1 379 0
 1211 0014 2068     		ldr	r0, [r4]
 1212 0016 FFF7FEFF 		bl	__aeabi_i2d
 1213              	.LVL148:
 1214 001a 0022     		movs	r2, #0
 1215 001c 654B     		ldr	r3, .L97+4
 1216 001e FFF7FEFF 		bl	__aeabi_ddiv
 1217              	.LVL149:
 1218 0022 FFF7FEFF 		bl	__aeabi_d2f
 1219              	.LVL150:
 1220 0026 0446     		mov	r4, r0
 1221 0028 634B     		ldr	r3, .L97+8
 1222 002a 1860     		str	r0, [r3]	@ float
 380:main.c        ****     
 381:main.c        ****     /* Restricting range of valid values */
 382:main.c        ****     if ((distance2 < 150) &&(distance2 > 55))
 1223              		.loc 1 382 0
 1224 002c 6349     		ldr	r1, .L97+12
 1225 002e FFF7FEFF 		bl	__aeabi_fcmplt
 1226              	.LVL151:
 1227 0032 38B1     		cbz	r0, .L75
 1228              		.loc 1 382 0 is_stmt 0 discriminator 1
 1229 0034 2046     		mov	r0, r4
 1230 0036 6249     		ldr	r1, .L97+16
 1231 0038 FFF7FEFF 		bl	__aeabi_fcmpgt
 1232              	.LVL152:
ARM GAS  C:\Users\rohi2\AppData\Local\Temp\ccib12mr.s 			page 32


 1233 003c 10B1     		cbz	r0, .L75
 383:main.c        ****     {
 384:main.c        ****         prev_distance2 = distance2;   
 1234              		.loc 1 384 0 is_stmt 1
 1235 003e 614B     		ldr	r3, .L97+20
 1236 0040 1C60     		str	r4, [r3]	@ float
 1237 0042 03E0     		b	.L78
 1238              	.L75:
 385:main.c        ****     }
 386:main.c        ****     
 387:main.c        ****     /*  Digital Filtering, We have a narrow window of valid readings
 388:main.c        ****         Beyond which we throw the signal away, and use the previous valid reading   
 389:main.c        ****     */
 390:main.c        ****     else
 391:main.c        ****     {
 392:main.c        ****         distance2 =  prev_distance2;  
 1239              		.loc 1 392 0
 1240 0044 5F4B     		ldr	r3, .L97+20
 1241 0046 1A68     		ldr	r2, [r3]	@ float
 1242 0048 5B4B     		ldr	r3, .L97+8
 1243 004a 1A60     		str	r2, [r3]	@ float
 1244              	.L78:
 393:main.c        ****     }
 394:main.c        ****     
 395:main.c        ****     /* Print the distances on the LCD */
 396:main.c        ****     LCD_Position(1, 1);
 1245              		.loc 1 396 0
 1246 004c 0120     		movs	r0, #1
 1247 004e 0146     		mov	r1, r0
 1248 0050 FFF7FEFF 		bl	LCD_Position
 1249              	.LVL153:
 397:main.c        ****     LCD_PrintString("    ");
 1250              		.loc 1 397 0
 1251 0054 5C48     		ldr	r0, .L97+24
 1252 0056 FFF7FEFF 		bl	LCD_PrintString
 1253              	.LVL154:
 398:main.c        ****     LCD_Position(1, 1);
 1254              		.loc 1 398 0
 1255 005a 0120     		movs	r0, #1
 1256 005c 0146     		mov	r1, r0
 1257 005e FFF7FEFF 		bl	LCD_Position
 1258              	.LVL155:
 399:main.c        ****     LCD_PrintU32Number(distance2);
 1259              		.loc 1 399 0
 1260 0062 554C     		ldr	r4, .L97+8
 1261 0064 2068     		ldr	r0, [r4]	@ float
 1262 0066 FFF7FEFF 		bl	__aeabi_f2uiz
 1263              	.LVL156:
 1264 006a FFF7FEFF 		bl	LCD_PrintU32Number
 1265              	.LVL157:
 400:main.c        ****     
 401:main.c        ****     #if 1
 402:main.c        ****     LCD_Position(0, 8);
 1266              		.loc 1 402 0
 1267 006e 0020     		movs	r0, #0
 1268 0070 0821     		movs	r1, #8
 1269 0072 FFF7FEFF 		bl	LCD_Position
ARM GAS  C:\Users\rohi2\AppData\Local\Temp\ccib12mr.s 			page 33


 1270              	.LVL158:
 403:main.c        ****     LCD_PrintString( "D:    " );
 1271              		.loc 1 403 0
 1272 0076 5548     		ldr	r0, .L97+28
 1273 0078 FFF7FEFF 		bl	LCD_PrintString
 1274              	.LVL159:
 404:main.c        ****     LCD_Position(0, 10);
 1275              		.loc 1 404 0
 1276 007c 0020     		movs	r0, #0
 1277 007e 0A21     		movs	r1, #10
 1278 0080 FFF7FEFF 		bl	LCD_Position
 1279              	.LVL160:
 405:main.c        ****     difference = distance - distance2;
 1280              		.loc 1 405 0
 1281 0084 524B     		ldr	r3, .L97+32
 1282 0086 D868     		ldr	r0, [r3, #12]	@ float
 1283 0088 2168     		ldr	r1, [r4]	@ float
 1284 008a FFF7FEFF 		bl	__aeabi_fsub
 1285              	.LVL161:
 1286 008e FFF7FEFF 		bl	__aeabi_f2iz
 1287              	.LVL162:
 1288 0092 504B     		ldr	r3, .L97+36
 1289 0094 1860     		str	r0, [r3]
 406:main.c        ****     
 407:main.c        ****     // Determine the correct elevation...
 408:main.c        ****     //elevation_index = K1 * difference ;  // K1 is just a guess.
 409:main.c        ****  
 410:main.c        ****     // Check for the array index being out of bounds.
 411:main.c        ****     //if( elevation_index < 0 )
 412:main.c        ****       //elevation_index = 0 ;
 413:main.c        ****         
 414:main.c        ****     //if(elevation_index > 29)
 415:main.c        ****       //elevation_index = 29 ;
 416:main.c        ****     
 417:main.c        ****     // This gives the number of steps to move the beam up.
 418:main.c        ****     //elevation_step_count = elevation_table[elevation_index] ;
 419:main.c        ****     
 420:main.c        ****     if (difference < 0)
 1290              		.loc 1 420 0
 1291 0096 0028     		cmp	r0, #0
 1292 0098 09DA     		bge	.L79
 421:main.c        ****     {
 422:main.c        ****        LCD_PutChar('-');
 1293              		.loc 1 422 0
 1294 009a 2D20     		movs	r0, #45
 1295 009c FFF7FEFF 		bl	LCD_PutChar
 1296              	.LVL163:
 423:main.c        ****        LCD_PrintNumber(-1 * difference);  
 1297              		.loc 1 423 0
 1298 00a0 4C4B     		ldr	r3, .L97+36
 1299 00a2 1868     		ldr	r0, [r3]
 1300 00a4 4042     		negs	r0, r0
 1301 00a6 80B2     		uxth	r0, r0
 1302 00a8 FFF7FEFF 		bl	LCD_PrintU32Number
 1303              	.LVL164:
 1304 00ac 02E0     		b	.L80
 1305              	.L79:
ARM GAS  C:\Users\rohi2\AppData\Local\Temp\ccib12mr.s 			page 34


 424:main.c        ****     }
 425:main.c        ****     
 426:main.c        ****     else
 427:main.c        ****     {
 428:main.c        ****         LCD_PrintNumber(difference);
 1306              		.loc 1 428 0
 1307 00ae 80B2     		uxth	r0, r0
 1308 00b0 FFF7FEFF 		bl	LCD_PrintU32Number
 1309              	.LVL165:
 1310              	.L80:
 429:main.c        ****     }
 430:main.c        ****     #endif
 431:main.c        ****     
 432:main.c        ****     sensor_delay_count++;
 1311              		.loc 1 432 0
 1312 00b4 464A     		ldr	r2, .L97+32
 1313 00b6 5369     		ldr	r3, [r2, #20]
 1314 00b8 0133     		adds	r3, r3, #1
 1315 00ba 5361     		str	r3, [r2, #20]
 433:main.c        ****     
 434:main.c        ****     #if 0
 435:main.c        ****     /* Need an equation to relate the difference with the number of steps */
 436:main.c        ****     /* Detect the tilt to the left, and move the motor */
 437:main.c        ****     if ((difference > 4) && (difference < 11) && (ccw_flag == 0))
 438:main.c        ****     {
 439:main.c        ****         //difference = -1 * difference;
 440:main.c        ****         no_of_steps = 10;
 441:main.c        ****         ccw_flag = 1;
 442:main.c        ****         
 443:main.c        ****         for(i = 0; i < no_of_steps; i++)
 444:main.c        ****         {
 445:main.c        ****             counter_clockwise();
 446:main.c        ****         }
 447:main.c        ****         
 448:main.c        ****         for (i = 0; i < pitch_limit; i++)
 449:main.c        ****         counter_clockwise_1();
 450:main.c        ****     }
 451:main.c        ****     
 452:main.c        ****     else if ((difference <= 4) && (difference > -4)  && (ccw_flag == 1))
 453:main.c        ****     {
 454:main.c        ****         #if 0
 455:main.c        ****         while (Digital_Out_P3_0_Read())
 456:main.c        ****         {
 457:main.c        ****             clockwise();   
 458:main.c        ****         }
 459:main.c        ****         
 460:main.c        ****         for (i = 0; i < 2; i++)
 461:main.c        ****             clockwise();
 462:main.c        ****             
 463:main.c        ****             stopMotor();
 464:main.c        ****         
 465:main.c        ****         
 466:main.c        ****         #else
 467:main.c        ****         
 468:main.c        ****         for (i = 0; i < pitch_limit; i++)
 469:main.c        ****         clockwise_1();
 470:main.c        ****         
ARM GAS  C:\Users\rohi2\AppData\Local\Temp\ccib12mr.s 			page 35


 471:main.c        ****         for(i = 0; i < no_of_steps; i++)
 472:main.c        ****         {
 473:main.c        ****             clockwise();
 474:main.c        ****         }
 475:main.c        ****         ccw_flag = 0;
 476:main.c        ****         #endif
 477:main.c        ****         
 478:main.c        ****         
 479:main.c        ****     }
 480:main.c        **** //    // modify
 481:main.c        **** //    if ((difference < -4) && (difference > -9) && (cw_flag == 0))
 482:main.c        **** //    {
 483:main.c        **** //        //difference = -1 * difference;
 484:main.c        **** //        no_of_steps = 10;
 485:main.c        **** //        cw_flag = 1;
 486:main.c        **** //        
 487:main.c        **** //        for(i = 0; i < no_of_steps; i++)
 488:main.c        **** //        {
 489:main.c        **** //            clockwise();
 490:main.c        **** //        }
 491:main.c        **** //        
 492:main.c        **** //        for (i = 0; i < pitch_limit; i++)
 493:main.c        **** //        clockwise_1();
 494:main.c        **** //    }
 495:main.c        **** //    
 496:main.c        **** //    else if ((difference > -1) && (difference < 4)  && (cw_flag == 1))
 497:main.c        **** //    {
 498:main.c        **** //        #if 0
 499:main.c        **** //        while (Digital_Out_P3_0_Read())
 500:main.c        **** //        {
 501:main.c        **** //            clockwise();   
 502:main.c        **** //        }
 503:main.c        **** //        
 504:main.c        **** //        for (i = 0; i < 2; i++)
 505:main.c        **** //            clockwise();
 506:main.c        **** //            
 507:main.c        **** //            stopMotor();
 508:main.c        **** //        
 509:main.c        **** //        
 510:main.c        **** //        #else
 511:main.c        **** //        
 512:main.c        **** //        for (i = 0; i < pitch_limit; i++)
 513:main.c        **** //        counter_clockwise_1();
 514:main.c        **** //        
 515:main.c        **** //        for(i = 0; i < no_of_steps; i++)
 516:main.c        **** //        {
 517:main.c        **** //            counter_clockwise();
 518:main.c        **** //        }
 519:main.c        **** //        cw_flag = 0;
 520:main.c        **** //        #endif
 521:main.c        **** //        
 522:main.c        **** //        
 523:main.c        **** //    }
 524:main.c        **** //    //end modify
 525:main.c        ****         #if 1
 526:main.c        ****         if ((difference < -4) && (difference > -11)&& (cw_flag == 0))
 527:main.c        ****         {
ARM GAS  C:\Users\rohi2\AppData\Local\Temp\ccib12mr.s 			page 36


 528:main.c        ****             //difference = -1 * difference;
 529:main.c        ****             no_of_steps = 10;
 530:main.c        ****             cw_flag = 1;
 531:main.c        ****             
 532:main.c        ****             for(i = 0; i < no_of_steps; i++)
 533:main.c        ****             {
 534:main.c        ****                 clockwise();
 535:main.c        ****             }
 536:main.c        ****             
 537:main.c        ****             for (i = 0; i < pitch_limit; i++)
 538:main.c        ****             counter_clockwise_1();
 539:main.c        ****         }
 540:main.c        ****         
 541:main.c        ****         else if ((difference > -4) && (difference < 4) && (cw_flag == 1))
 542:main.c        ****         {
 543:main.c        ****             #if 0
 544:main.c        ****             while (Digital_Out_P3_0_Read())
 545:main.c        ****             {
 546:main.c        ****                 counter_clockwise();   
 547:main.c        ****             }
 548:main.c        ****             
 549:main.c        ****             //for (i = 0; i < 2; i++)
 550:main.c        ****                 counter_clockwise(); 
 551:main.c        ****                 
 552:main.c        ****                 stopMotor();
 553:main.c        ****            
 554:main.c        ****             
 555:main.c        ****             #else
 556:main.c        ****             
 557:main.c        ****             for (i = 0; i < pitch_limit; i++)
 558:main.c        ****                 clockwise_1();
 559:main.c        ****             
 560:main.c        ****             for(i = 0; i < no_of_steps; i++)
 561:main.c        ****             {
 562:main.c        ****                 counter_clockwise();
 563:main.c        ****             }
 564:main.c        ****             cw_flag = 0;
 565:main.c        ****             #endif
 566:main.c        ****         }
 567:main.c        ****         #endif
 568:main.c        ****     //Indexing
 569:main.c        ****     
 570:main.c        ****     #else
 571:main.c        ****         
 572:main.c        ****     if ((sensor_delay_count % 4) == 0)
 1316              		.loc 1 572 0
 1317 00bc 13F0030F 		tst	r3, #3
 1318 00c0 74D1     		bne	.L74
 573:main.c        ****     {
 574:main.c        ****         if (((difference >= -5) && (difference <= 5)))
 1319              		.loc 1 574 0
 1320 00c2 444B     		ldr	r3, .L97+36
 1321 00c4 1B68     		ldr	r3, [r3]
 1322 00c6 5A1D     		adds	r2, r3, #5
 1323 00c8 0A2A     		cmp	r2, #10
 1324 00ca 6FD8     		bhi	.L74
 575:main.c        ****         {
ARM GAS  C:\Users\rohi2\AppData\Local\Temp\ccib12mr.s 			page 37


 576:main.c        ****             if (!((difference == -1) || (difference == 1)))
 1325              		.loc 1 576 0
 1326 00cc B3F1FF3F 		cmp	r3, #-1
 1327 00d0 6CD0     		beq	.L74
 1328              		.loc 1 576 0 is_stmt 0 discriminator 1
 1329 00d2 012B     		cmp	r3, #1
 1330 00d4 6AD0     		beq	.L74
 577:main.c        ****             {
 578:main.c        ****                 // Pointing to the right index in the lookup table based on the difference readings
 579:main.c        ****                 // Yaw lookup table
 580:main.c        ****                 yaw_index = difference + 5;
 1331              		.loc 1 580 0 is_stmt 1
 1332 00d6 1346     		mov	r3, r2
 1333 00d8 3D4C     		ldr	r4, .L97+32
 1334 00da A261     		str	r2, [r4, #24]
 581:main.c        ****                 no_of_steps = yaw_table[yaw_index];
 1335              		.loc 1 581 0
 1336 00dc 3E4A     		ldr	r2, .L97+40
 1337 00de 02EB8305 		add	r5, r2, r3, lsl #2
 1338 00e2 A888     		ldrh	r0, [r5, #4]
 1339 00e4 1086     		strh	r0, [r2, #48]	@ movhi
 582:main.c        ****                 move_steps = no_of_steps - yaw_table[prev_yaw_index];
 1340              		.loc 1 582 0
 1341 00e6 516B     		ldr	r1, [r2, #52]
 1342 00e8 02EB8101 		add	r1, r2, r1, lsl #2
 1343 00ec 4968     		ldr	r1, [r1, #4]
 1344 00ee 00B2     		sxth	r0, r0
 1345 00f0 411A     		subs	r1, r0, r1
 1346 00f2 E161     		str	r1, [r4, #28]
 583:main.c        ****                 
 584:main.c        ****                 // Pitch lookup table
 585:main.c        ****                 pitch_index = difference + 5;
 1347              		.loc 1 585 0
 1348 00f4 2362     		str	r3, [r4, #32]
 586:main.c        ****                 pitch_no_of_steps = pitch_table[pitch_index];
 1349              		.loc 1 586 0
 1350 00f6 AB6B     		ldr	r3, [r5, #56]
 1351 00f8 6362     		str	r3, [r4, #36]
 587:main.c        ****                 pitch_move_steps = pitch_no_of_steps - pitch_table[prev_pitch_index];
 1352              		.loc 1 587 0
 1353 00fa 506E     		ldr	r0, [r2, #100]
 1354 00fc 02EB8002 		add	r2, r2, r0, lsl #2
 1355 0100 926B     		ldr	r2, [r2, #56]
 1356 0102 9B1A     		subs	r3, r3, r2
 1357 0104 A362     		str	r3, [r4, #40]
 588:main.c        ****                 
 589:main.c        ****                 // clockwise
 590:main.c        ****                 if (move_steps < 0)
 1358              		.loc 1 590 0
 1359 0106 0029     		cmp	r1, #0
 1360 0108 12DA     		bge	.L82
 591:main.c        ****                 {
 592:main.c        ****                     move_steps = -1 * move_steps;
 1361              		.loc 1 592 0
 1362 010a 4942     		negs	r1, r1
 1363 010c E161     		str	r1, [r4, #28]
 593:main.c        ****                     
ARM GAS  C:\Users\rohi2\AppData\Local\Temp\ccib12mr.s 			page 38


 594:main.c        ****                     // no of steps to move is obtained from the lookup table based on index obtaine
 595:main.c        ****                     // in the previous step
 596:main.c        ****                     for (i = 0; i < move_steps; i++)
 1364              		.loc 1 596 0
 1365 010e 0022     		movs	r2, #0
 1366 0110 324B     		ldr	r3, .L97+44
 1367 0112 1A60     		str	r2, [r3]
 1368 0114 05E0     		b	.L83
 1369              	.L84:
 597:main.c        ****                     {
 598:main.c        ****                         #ifdef HALF_STEP
 599:main.c        ****                             yaw_clockwise();
 1370              		.loc 1 599 0 discriminator 3
 1371 0116 FFF7FEFF 		bl	yaw_clockwise
 1372              	.LVL166:
 596:main.c        ****                     {
 1373              		.loc 1 596 0 discriminator 3
 1374 011a 304A     		ldr	r2, .L97+44
 1375 011c 1368     		ldr	r3, [r2]
 1376 011e 0133     		adds	r3, r3, #1
 1377 0120 1360     		str	r3, [r2]
 1378              	.L83:
 596:main.c        ****                     {
 1379              		.loc 1 596 0 is_stmt 0 discriminator 1
 1380 0122 2E4B     		ldr	r3, .L97+44
 1381 0124 1A68     		ldr	r2, [r3]
 1382 0126 2A4B     		ldr	r3, .L97+32
 1383 0128 DB69     		ldr	r3, [r3, #28]
 1384 012a 9A42     		cmp	r2, r3
 1385 012c F3DB     		blt	.L84
 1386 012e 0FE0     		b	.L85
 1387              	.L82:
 600:main.c        ****                         
 601:main.c        ****                         #else
 602:main.c        ****                             clockwise();
 603:main.c        ****                             
 604:main.c        ****                         #endif
 605:main.c        ****                     }
 606:main.c        ****                 }
 607:main.c        ****                 
 608:main.c        ****                 //counter_clockwise
 609:main.c        ****                 else
 610:main.c        ****                 {
 611:main.c        ****                     //no of steps to move is obtained from the lookup table based on index obtained
 612:main.c        ****                     //in the previous step
 613:main.c        ****                     for (i = 0; i < move_steps; i++)
 1388              		.loc 1 613 0 is_stmt 1
 1389 0130 0022     		movs	r2, #0
 1390 0132 2A4B     		ldr	r3, .L97+44
 1391 0134 1A60     		str	r2, [r3]
 1392 0136 05E0     		b	.L86
 1393              	.L87:
 614:main.c        ****                     {
 615:main.c        ****                         #ifdef HALF_STEP
 616:main.c        ****                             yaw_counter_clockwise();
 1394              		.loc 1 616 0 discriminator 3
 1395 0138 FFF7FEFF 		bl	yaw_counter_clockwise
ARM GAS  C:\Users\rohi2\AppData\Local\Temp\ccib12mr.s 			page 39


 1396              	.LVL167:
 613:main.c        ****                     {
 1397              		.loc 1 613 0 discriminator 3
 1398 013c 274A     		ldr	r2, .L97+44
 1399 013e 1368     		ldr	r3, [r2]
 1400 0140 0133     		adds	r3, r3, #1
 1401 0142 1360     		str	r3, [r2]
 1402              	.L86:
 613:main.c        ****                     {
 1403              		.loc 1 613 0 is_stmt 0 discriminator 1
 1404 0144 254B     		ldr	r3, .L97+44
 1405 0146 1A68     		ldr	r2, [r3]
 1406 0148 214B     		ldr	r3, .L97+32
 1407 014a DB69     		ldr	r3, [r3, #28]
 1408 014c 9A42     		cmp	r2, r3
 1409 014e F3DB     		blt	.L87
 1410              	.L85:
 617:main.c        ****                         
 618:main.c        ****                         #else
 619:main.c        ****                             counter_clockwise();
 620:main.c        ****                             
 621:main.c        ****                         #endif 
 622:main.c        ****                     }  
 623:main.c        ****                 }
 624:main.c        ****                 
 625:main.c        ****                 // Pitch motor control
 626:main.c        ****                 // Moved away from home position
 627:main.c        ****                 if (pitch_move_steps > 0)
 1411              		.loc 1 627 0 is_stmt 1
 1412 0150 1F4B     		ldr	r3, .L97+32
 1413 0152 9B6A     		ldr	r3, [r3, #40]
 1414 0154 002B     		cmp	r3, #0
 1415 0156 10DD     		ble	.L88
 628:main.c        ****                 {
 629:main.c        ****                     //pitch motor has to move up
 630:main.c        ****                     for (i = 0; i < pitch_move_steps; i++)
 1416              		.loc 1 630 0
 1417 0158 0022     		movs	r2, #0
 1418 015a 204B     		ldr	r3, .L97+44
 1419 015c 1A60     		str	r2, [r3]
 1420 015e 05E0     		b	.L89
 1421              	.L90:
 631:main.c        ****                     {
 632:main.c        ****                        counter_clockwise_1(); 
 1422              		.loc 1 632 0 discriminator 3
 1423 0160 FFF7FEFF 		bl	counter_clockwise_1
 1424              	.LVL168:
 630:main.c        ****                     {
 1425              		.loc 1 630 0 discriminator 3
 1426 0164 1D4A     		ldr	r2, .L97+44
 1427 0166 1368     		ldr	r3, [r2]
 1428 0168 0133     		adds	r3, r3, #1
 1429 016a 1360     		str	r3, [r2]
 1430              	.L89:
 630:main.c        ****                     {
 1431              		.loc 1 630 0 is_stmt 0 discriminator 1
 1432 016c 1B4B     		ldr	r3, .L97+44
ARM GAS  C:\Users\rohi2\AppData\Local\Temp\ccib12mr.s 			page 40


 1433 016e 1A68     		ldr	r2, [r3]
 1434 0170 174B     		ldr	r3, .L97+32
 1435 0172 9B6A     		ldr	r3, [r3, #40]
 1436 0174 9A42     		cmp	r2, r3
 1437 0176 F3DB     		blt	.L90
 1438 0178 12E0     		b	.L91
 1439              	.L88:
 633:main.c        ****                     
 634:main.c        ****                     }
 635:main.c        ****                     
 636:main.c        ****                 }
 637:main.c        ****                 
 638:main.c        ****                 // Motor moving towards home position
 639:main.c        ****                 else
 640:main.c        ****                 {
 641:main.c        ****                     // Need 
 642:main.c        ****                     pitch_move_steps = -1 * pitch_move_steps;
 1440              		.loc 1 642 0 is_stmt 1
 1441 017a 5B42     		negs	r3, r3
 1442 017c 144A     		ldr	r2, .L97+32
 1443 017e 9362     		str	r3, [r2, #40]
 643:main.c        ****                     
 644:main.c        ****                     // pitch motor has to move down
 645:main.c        ****                     for (i = 0; i < pitch_move_steps; i++)
 1444              		.loc 1 645 0
 1445 0180 0022     		movs	r2, #0
 1446 0182 164B     		ldr	r3, .L97+44
 1447 0184 1A60     		str	r2, [r3]
 1448 0186 05E0     		b	.L92
 1449              	.L93:
 646:main.c        ****                     {
 647:main.c        ****                        clockwise_1(); 
 1450              		.loc 1 647 0 discriminator 3
 1451 0188 FFF7FEFF 		bl	clockwise_1
 1452              	.LVL169:
 645:main.c        ****                     {
 1453              		.loc 1 645 0 discriminator 3
 1454 018c 134A     		ldr	r2, .L97+44
 1455 018e 1368     		ldr	r3, [r2]
 1456 0190 0133     		adds	r3, r3, #1
 1457 0192 1360     		str	r3, [r2]
 1458              	.L92:
 645:main.c        ****                     {
 1459              		.loc 1 645 0 is_stmt 0 discriminator 1
 1460 0194 114B     		ldr	r3, .L97+44
 1461 0196 1A68     		ldr	r2, [r3]
 1462 0198 0D4B     		ldr	r3, .L97+32
 1463 019a 9B6A     		ldr	r3, [r3, #40]
 1464 019c 9A42     		cmp	r2, r3
 1465 019e F3DB     		blt	.L93
 1466              	.L91:
 648:main.c        ****                     } 
 649:main.c        ****                 }
 650:main.c        ****                 
 651:main.c        ****                 prev_pitch_index = pitch_index;
 1467              		.loc 1 651 0 is_stmt 1
 1468 01a0 0D4B     		ldr	r3, .L97+40
ARM GAS  C:\Users\rohi2\AppData\Local\Temp\ccib12mr.s 			page 41


 1469 01a2 0B4A     		ldr	r2, .L97+32
 1470 01a4 116A     		ldr	r1, [r2, #32]
 1471 01a6 5966     		str	r1, [r3, #100]
 652:main.c        ****                 prev_yaw_index = yaw_index;
 1472              		.loc 1 652 0
 1473 01a8 9269     		ldr	r2, [r2, #24]
 1474 01aa 5A63     		str	r2, [r3, #52]
 1475              	.L74:
 1476 01ac 38BD     		pop	{r3, r4, r5, pc}
 1477              	.L98:
 1478 01ae 00BF     		.align	2
 1479              	.L97:
 1480 01b0 00000000 		.word	count2
 1481 01b4 00002440 		.word	1076101120
 1482 01b8 00000000 		.word	distance2
 1483 01bc 00001643 		.word	1125515264
 1484 01c0 00005C42 		.word	1113325568
 1485 01c4 00000000 		.word	prev_distance2
 1486 01c8 00000000 		.word	.LC0
 1487 01cc 08000000 		.word	.LC1
 1488 01d0 00000000 		.word	.LANCHOR0
 1489 01d4 00000000 		.word	difference
 1490 01d8 00000000 		.word	.LANCHOR1
 1491 01dc 00000000 		.word	i
 1492              		.cfi_endproc
 1493              	.LFE91:
 1494              		.size	FALLING_EDGE_2, .-FALLING_EDGE_2
 1495              		.section	.text.counter_clockwise,"ax",%progbits
 1496              		.align	2
 1497              		.global	counter_clockwise
 1498              		.thumb
 1499              		.thumb_func
 1500              		.type	counter_clockwise, %function
 1501              	counter_clockwise:
 1502              	.LFB86:
 297:main.c        ****     step3();
 1503              		.loc 1 297 0
 1504              		.cfi_startproc
 1505              		@ args = 0, pretend = 0, frame = 0
 1506              		@ frame_needed = 0, uses_anonymous_args = 0
 1507 0000 10B5     		push	{r4, lr}
 1508              		.cfi_def_cfa_offset 8
 1509              		.cfi_offset 4, -8
 1510              		.cfi_offset 14, -4
 298:main.c        ****     CyDelayUs(delay);
 1511              		.loc 1 298 0
 1512 0002 FFF7FEFF 		bl	step3
 1513              	.LVL170:
 299:main.c        ****     step2();
 1514              		.loc 1 299 0
 1515 0006 0A4C     		ldr	r4, .L101
 1516 0008 2088     		ldrh	r0, [r4]
 1517 000a FFF7FEFF 		bl	CyDelayUs
 1518              	.LVL171:
 300:main.c        ****     CyDelayUs(delay);
 1519              		.loc 1 300 0
 1520 000e FFF7FEFF 		bl	step2
ARM GAS  C:\Users\rohi2\AppData\Local\Temp\ccib12mr.s 			page 42


 1521              	.LVL172:
 301:main.c        ****     step1();
 1522              		.loc 1 301 0
 1523 0012 2088     		ldrh	r0, [r4]
 1524 0014 FFF7FEFF 		bl	CyDelayUs
 1525              	.LVL173:
 302:main.c        ****     CyDelayUs(delay);
 1526              		.loc 1 302 0
 1527 0018 FFF7FEFF 		bl	step1
 1528              	.LVL174:
 303:main.c        ****     step4();
 1529              		.loc 1 303 0
 1530 001c 2088     		ldrh	r0, [r4]
 1531 001e FFF7FEFF 		bl	CyDelayUs
 1532              	.LVL175:
 304:main.c        ****     CyDelayUs(delay);
 1533              		.loc 1 304 0
 1534 0022 FFF7FEFF 		bl	step4
 1535              	.LVL176:
 305:main.c        **** }
 1536              		.loc 1 305 0
 1537 0026 2088     		ldrh	r0, [r4]
 1538 0028 FFF7FEFF 		bl	CyDelayUs
 1539              	.LVL177:
 1540 002c 10BD     		pop	{r4, pc}
 1541              	.L102:
 1542 002e 00BF     		.align	2
 1543              	.L101:
 1544 0030 00000000 		.word	.LANCHOR1
 1545              		.cfi_endproc
 1546              	.LFE86:
 1547              		.size	counter_clockwise, .-counter_clockwise
 1548              		.section	.text.main,"ax",%progbits
 1549              		.align	2
 1550              		.global	main
 1551              		.thumb
 1552              		.thumb_func
 1553              		.type	main, %function
 1554              	main:
 1555              	.LFB92:
 653:main.c        ****             }
 654:main.c        ****         }
 655:main.c        ****         
 656:main.c        **** //        else if ((difference >= -5) && (difference < 0))
 657:main.c        **** //        {
 658:main.c        **** //            yaw_index = difference + 5;
 659:main.c        **** //            
 660:main.c        **** //            no_of_steps = -1 * yaw_table[yaw_index];
 661:main.c        **** //            move_steps = no_of_steps - yaw_table[prev_yaw_index];
 662:main.c        **** //            
 663:main.c        **** //            //clockwise
 664:main.c        **** //            if (move_steps < 0)
 665:main.c        **** //            {
 666:main.c        **** //                move_steps = -1 * move_steps;
 667:main.c        **** //                
 668:main.c        **** //                for (i = 0; i < move_steps; i++)
 669:main.c        **** //                {
ARM GAS  C:\Users\rohi2\AppData\Local\Temp\ccib12mr.s 			page 43


 670:main.c        **** //                    clockwise();  
 671:main.c        **** //                }
 672:main.c        **** //            }
 673:main.c        **** //            
 674:main.c        **** ////            else if (move_steps == 0)
 675:main.c        **** ////            {
 676:main.c        **** ////                
 677:main.c        **** ////            }
 678:main.c        **** //            
 679:main.c        **** //            else if (move_steps > 0)
 680:main.c        **** //            {
 681:main.c        **** //                for (i = 0; i < move_steps; i++)
 682:main.c        **** //                {
 683:main.c        **** //                    counter_clockwise();  
 684:main.c        **** //                }  
 685:main.c        **** //            }
 686:main.c        **** //            
 687:main.c        **** //            prev_yaw_index = yaw_index; 
 688:main.c        **** //        }
 689:main.c        ****     }
 690:main.c        ****     #endif
 691:main.c        **** }
 692:main.c        **** 
 693:main.c        **** 
 694:main.c        **** 
 695:main.c        **** 
 696:main.c        **** 
 697:main.c        **** 
 698:main.c        **** /////////////////////////////////  Start of main.c  ////////////////////////////////////
 699:main.c        **** //
 700:main.c        **** int main(void)
 701:main.c        **** {
 1556              		.loc 1 701 0
 1557              		.cfi_startproc
 1558              		@ Volatile: function does not return.
 1559              		@ args = 0, pretend = 0, frame = 0
 1560              		@ frame_needed = 0, uses_anonymous_args = 0
 1561 0000 08B5     		push	{r3, lr}
 1562              		.cfi_def_cfa_offset 8
 1563              		.cfi_offset 3, -8
 1564              		.cfi_offset 14, -4
 702:main.c        ****     CyGlobalIntEnable; /* Enable global interrupts. */
 1565              		.loc 1 702 0
 1566              	@ 702 "main.c" 1
 1567 0002 62B6     		CPSIE   i
 1568              	@ 0 "" 2
 703:main.c        **** 
 704:main.c        ****     #if 1
 705:main.c        ****      for (i = 0; i < 50; i++)
 1569              		.loc 1 705 0
 1570              		.thumb
 1571 0004 0022     		movs	r2, #0
 1572 0006 264B     		ldr	r3, .L114
 1573 0008 1A60     		str	r2, [r3]
 1574 000a 05E0     		b	.L104
 1575              	.L105:
 706:main.c        ****         clockwise();
ARM GAS  C:\Users\rohi2\AppData\Local\Temp\ccib12mr.s 			page 44


 1576              		.loc 1 706 0 discriminator 3
 1577 000c FFF7FEFF 		bl	clockwise
 1578              	.LVL178:
 705:main.c        ****         clockwise();
 1579              		.loc 1 705 0 discriminator 3
 1580 0010 234A     		ldr	r2, .L114
 1581 0012 1368     		ldr	r3, [r2]
 1582 0014 0133     		adds	r3, r3, #1
 1583 0016 1360     		str	r3, [r2]
 1584              	.L104:
 705:main.c        ****         clockwise();
 1585              		.loc 1 705 0 is_stmt 0 discriminator 1
 1586 0018 214B     		ldr	r3, .L114
 1587 001a 1B68     		ldr	r3, [r3]
 1588 001c 312B     		cmp	r3, #49
 1589 001e F5DD     		ble	.L105
 707:main.c        ****         
 708:main.c        ****     for (i = 0; i < 50; i++) 
 1590              		.loc 1 708 0 is_stmt 1
 1591 0020 0022     		movs	r2, #0
 1592 0022 1F4B     		ldr	r3, .L114
 1593 0024 1A60     		str	r2, [r3]
 1594 0026 05E0     		b	.L106
 1595              	.L107:
 709:main.c        ****         counter_clockwise_1();
 1596              		.loc 1 709 0 discriminator 3
 1597 0028 FFF7FEFF 		bl	counter_clockwise_1
 1598              	.LVL179:
 708:main.c        ****         counter_clockwise_1();
 1599              		.loc 1 708 0 discriminator 3
 1600 002c 1C4A     		ldr	r2, .L114
 1601 002e 1368     		ldr	r3, [r2]
 1602 0030 0133     		adds	r3, r3, #1
 1603 0032 1360     		str	r3, [r2]
 1604              	.L106:
 708:main.c        ****         counter_clockwise_1();
 1605              		.loc 1 708 0 is_stmt 0 discriminator 1
 1606 0034 1A4B     		ldr	r3, .L114
 1607 0036 1B68     		ldr	r3, [r3]
 1608 0038 312B     		cmp	r3, #49
 1609 003a F5DD     		ble	.L107
 710:main.c        ****         
 711:main.c        ****     for (i = 0; i < 16; i++)  
 1610              		.loc 1 711 0 is_stmt 1
 1611 003c 0022     		movs	r2, #0
 1612 003e 184B     		ldr	r3, .L114
 1613 0040 1A60     		str	r2, [r3]
 1614 0042 05E0     		b	.L108
 1615              	.L109:
 712:main.c        ****         clockwise_1(); 
 1616              		.loc 1 712 0 discriminator 3
 1617 0044 FFF7FEFF 		bl	clockwise_1
 1618              	.LVL180:
 711:main.c        ****         clockwise_1(); 
 1619              		.loc 1 711 0 discriminator 3
 1620 0048 154A     		ldr	r2, .L114
 1621 004a 1368     		ldr	r3, [r2]
ARM GAS  C:\Users\rohi2\AppData\Local\Temp\ccib12mr.s 			page 45


 1622 004c 0133     		adds	r3, r3, #1
 1623 004e 1360     		str	r3, [r2]
 1624              	.L108:
 711:main.c        ****         clockwise_1(); 
 1625              		.loc 1 711 0 is_stmt 0 discriminator 1
 1626 0050 134B     		ldr	r3, .L114
 1627 0052 1B68     		ldr	r3, [r3]
 1628 0054 0F2B     		cmp	r3, #15
 1629 0056 F5DD     		ble	.L109
 713:main.c        ****         
 714:main.c        ****     for (i = 0; i < 8; i++)
 1630              		.loc 1 714 0 is_stmt 1
 1631 0058 0022     		movs	r2, #0
 1632 005a 114B     		ldr	r3, .L114
 1633 005c 1A60     		str	r2, [r3]
 1634 005e 05E0     		b	.L110
 1635              	.L111:
 715:main.c        ****         counter_clockwise();
 1636              		.loc 1 715 0 discriminator 3
 1637 0060 FFF7FEFF 		bl	counter_clockwise
 1638              	.LVL181:
 714:main.c        ****         counter_clockwise();
 1639              		.loc 1 714 0 discriminator 3
 1640 0064 0E4A     		ldr	r2, .L114
 1641 0066 1368     		ldr	r3, [r2]
 1642 0068 0133     		adds	r3, r3, #1
 1643 006a 1360     		str	r3, [r2]
 1644              	.L110:
 714:main.c        ****         counter_clockwise();
 1645              		.loc 1 714 0 is_stmt 0 discriminator 1
 1646 006c 0C4B     		ldr	r3, .L114
 1647 006e 1B68     		ldr	r3, [r3]
 1648 0070 072B     		cmp	r3, #7
 1649 0072 F5DD     		ble	.L111
 716:main.c        ****         #endif
 717:main.c        ****         
 718:main.c        ****     //delay = 10000;
 719:main.c        ****     
 720:main.c        ****     // Start LCD module
 721:main.c        ****     //LCD_Start( );	
 722:main.c        **** 
 723:main.c        ****     // Cursor to Row 0, Col 0
 724:main.c        **** 	//LCD_Position( 0, 0 );
 725:main.c        ****     
 726:main.c        ****     ccw_flag = 0, cw_flag = 0;
 1650              		.loc 1 726 0 is_stmt 1
 1651 0074 0B4C     		ldr	r4, .L114+4
 1652 0076 0025     		movs	r5, #0
 1653 0078 A585     		strh	r5, [r4, #44]	@ movhi
 1654 007a E585     		strh	r5, [r4, #46]	@ movhi
 727:main.c        ****     //hall_sensor_flag = 0;
 728:main.c        ****     
 729:main.c        ****     /* Place your initialization/startup code here (e.g. MyInst_Start()) */
 730:main.c        ****     //right sensor
 731:main.c        ****     isr_1_StartEx(RISING_EDGE_1);
 1655              		.loc 1 731 0
 1656 007c 0A48     		ldr	r0, .L114+8
ARM GAS  C:\Users\rohi2\AppData\Local\Temp\ccib12mr.s 			page 46


 1657 007e FFF7FEFF 		bl	isr_1_StartEx
 1658              	.LVL182:
 732:main.c        ****     isr_3_StartEx(FALLING_EDGE_1);
 1659              		.loc 1 732 0
 1660 0082 0A48     		ldr	r0, .L114+12
 1661 0084 FFF7FEFF 		bl	isr_3_StartEx
 1662              	.LVL183:
 733:main.c        **** 
 734:main.c        ****     //left sensor
 735:main.c        ****     isr_2_StartEx(RISING_EDGE_2);
 1663              		.loc 1 735 0
 1664 0088 0948     		ldr	r0, .L114+16
 1665 008a FFF7FEFF 		bl	isr_2_StartEx
 1666              	.LVL184:
 736:main.c        ****     isr_4_StartEx(FALLING_EDGE_2);
 1667              		.loc 1 736 0
 1668 008e 0948     		ldr	r0, .L114+20
 1669 0090 FFF7FEFF 		bl	isr_4_StartEx
 1670              	.LVL185:
 737:main.c        **** 
 738:main.c        ****     //hall sensor
 739:main.c        ****     isr_5_StartEx(HALL_SENSOR);
 1671              		.loc 1 739 0
 1672 0094 0848     		ldr	r0, .L114+24
 1673 0096 FFF7FEFF 		bl	isr_5_StartEx
 1674              	.LVL186:
 740:main.c        ****     hall_sensor_flag = 0;
 1675              		.loc 1 740 0
 1676 009a 2570     		strb	r5, [r4]
 1677              	.L112:
 741:main.c        ****     
 742:main.c        ****     #if 0
 743:main.c        ****     /* Run stepper motor orientation test once */
 744:main.c        ****     for (i = 0; i < 20; i++)
 745:main.c        ****     {
 746:main.c        ****         if (hall_sensor_flag == 0)
 747:main.c        ****         {
 748:main.c        ****             clockwise();
 749:main.c        ****         }
 750:main.c        ****         
 751:main.c        ****         else
 752:main.c        ****         {
 753:main.c        ****             //for (i = 0; i < 2; i++)
 754:main.c        ****             clockwise();
 755:main.c        ****             
 756:main.c        ****             //stopMotor();
 757:main.c        ****             break;
 758:main.c        ****         }
 759:main.c        ****     }
 760:main.c        **** 
 761:main.c        ****     /* Initial sweep of clockwise doesn't detect the hall sensor, so back */
 762:main.c        ****     if (i == 20)
 763:main.c        ****     {
 764:main.c        ****         for (i = 0; i < 50; i++)
 765:main.c        ****         {
 766:main.c        ****             if (!hall_sensor_flag)
 767:main.c        ****             {
ARM GAS  C:\Users\rohi2\AppData\Local\Temp\ccib12mr.s 			page 47


 768:main.c        ****                 counter_clockwise();
 769:main.c        ****             }
 770:main.c        ****             
 771:main.c        ****             else
 772:main.c        ****             {
 773:main.c        ****                 counter_clockwise();
 774:main.c        ****                 
 775:main.c        ****                 //stopMotor();
 776:main.c        ****                 break;
 777:main.c        ****             }
 778:main.c        ****         }
 779:main.c        ****         
 780:main.c        ****         hall_sensor_flag = 0;
 781:main.c        ****     }
 782:main.c        ****     
 783:main.c        ****     #else
 784:main.c        ****         
 785:main.c        **** //    for (i = 0; i < 50; i++) 
 786:main.c        **** //        counter_clockwise_1();
 787:main.c        **** //        
 788:main.c        **** //    for (i = 0; i < 22; i++)  
 789:main.c        **** //        clockwise_1();
 790:main.c        ****     
 791:main.c        ****    
 792:main.c        ****         
 793:main.c        ****        
 794:main.c        ****         
 795:main.c        ****     #endif
 796:main.c        ****     
 797:main.c        ****     
 798:main.c        ****     for(;;)
 799:main.c        ****     {
 800:main.c        ****         /* Place your application code here. */
 801:main.c        **** //        for (i = 0; i < 50; i++)
 802:main.c        **** //        clockwise();
 803:main.c        **** //        
 804:main.c        **** //        for (i = 0; i < 50; i++)
 805:main.c        **** //        counter_clockwise();
 806:main.c        ****     }
 1678              		.loc 1 806 0 discriminator 1
 1679 009c FEE7     		b	.L112
 1680              	.L115:
 1681 009e 00BF     		.align	2
 1682              	.L114:
 1683 00a0 00000000 		.word	i
 1684 00a4 00000000 		.word	.LANCHOR0
 1685 00a8 00000000 		.word	RISING_EDGE_1
 1686 00ac 00000000 		.word	FALLING_EDGE_1
 1687 00b0 00000000 		.word	RISING_EDGE_2
 1688 00b4 00000000 		.word	FALLING_EDGE_2
 1689 00b8 00000000 		.word	HALL_SENSOR
 1690              		.cfi_endproc
 1691              	.LFE92:
 1692              		.size	main, .-main
 1693              		.global	pitch_limit
 1694              		.global	hall_sensor_flag
 1695              		.comm	prev_distance2,4,4
ARM GAS  C:\Users\rohi2\AppData\Local\Temp\ccib12mr.s 			page 48


 1696              		.global	prev_distance
 1697              		.comm	i,4,4
 1698              		.global	no_of_steps
 1699              		.global	cw_flag
 1700              		.global	ccw_flag
 1701              		.global	hall_count
 1702              		.comm	difference,4,4
 1703              		.comm	sum,4,4
 1704              		.global	delay
 1705              		.comm	distance2,4,4
 1706              		.global	distance
 1707              		.global	sensor_delay_count
 1708              		.comm	count2,4,4
 1709              		.global	count
 1710              		.global	pitch_no_of_steps
 1711              		.global	pitch_move_steps
 1712              		.global	move_steps
 1713              		.global	prev_pitch_index
 1714              		.global	prev_yaw_index
 1715              		.global	pitch_index
 1716              		.global	pitch_table
 1717              		.global	yaw_index
 1718              		.global	yaw_table
 1719              		.comm	bad_event_array,40,4
 1720              		.comm	percent_good_counts,4,4
 1721              		.comm	bad_dx_count,4,4
 1722              		.data
 1723              		.align	2
 1724              		.set	.LANCHOR1,. + 0
 1725              		.type	delay, %object
 1726              		.size	delay, 2
 1727              	delay:
 1728 0000 1027     		.short	10000
 1729 0002 0000     		.space	2
 1730              		.type	yaw_table, %object
 1731              		.size	yaw_table, 44
 1732              	yaw_table:
 1733 0004 FCFFFFFF 		.word	-4
 1734 0008 FDFFFFFF 		.word	-3
 1735 000c FEFFFFFF 		.word	-2
 1736 0010 FFFFFFFF 		.word	-1
 1737 0014 FFFFFFFF 		.word	-1
 1738 0018 00000000 		.word	0
 1739 001c 01000000 		.word	1
 1740 0020 01000000 		.word	1
 1741 0024 02000000 		.word	2
 1742 0028 03000000 		.word	3
 1743 002c 04000000 		.word	4
 1744              		.type	no_of_steps, %object
 1745              		.size	no_of_steps, 2
 1746              	no_of_steps:
 1747 0030 0A00     		.short	10
 1748 0032 0000     		.space	2
 1749              		.type	prev_yaw_index, %object
 1750              		.size	prev_yaw_index, 4
 1751              	prev_yaw_index:
 1752 0034 05000000 		.word	5
ARM GAS  C:\Users\rohi2\AppData\Local\Temp\ccib12mr.s 			page 49


 1753              		.type	pitch_table, %object
 1754              		.size	pitch_table, 44
 1755              	pitch_table:
 1756 0038 04000000 		.word	4
 1757 003c 03000000 		.word	3
 1758 0040 02000000 		.word	2
 1759 0044 01000000 		.word	1
 1760 0048 00000000 		.word	0
 1761 004c 00000000 		.word	0
 1762 0050 00000000 		.word	0
 1763 0054 01000000 		.word	1
 1764 0058 02000000 		.word	2
 1765 005c 03000000 		.word	3
 1766 0060 04000000 		.word	4
 1767              		.type	prev_pitch_index, %object
 1768              		.size	prev_pitch_index, 4
 1769              	prev_pitch_index:
 1770 0064 05000000 		.word	5
 1771              		.type	pitch_limit, %object
 1772              		.size	pitch_limit, 1
 1773              	pitch_limit:
 1774 0068 0A       		.byte	10
 1775 0069 000000   		.section	.rodata.str1.4,"aMS",%progbits,1
 1776              		.align	2
 1777              	.LC0:
 1778 0000 20202020 		.ascii	"    \000"
 1778      00
 1779 0005 000000   		.space	3
 1780              	.LC1:
 1781 0008 443A2020 		.ascii	"D:    \000"
 1781      202000
 1782 000f 00       		.bss
 1783              		.align	2
 1784              		.set	.LANCHOR0,. + 0
 1785              		.type	hall_sensor_flag, %object
 1786              		.size	hall_sensor_flag, 1
 1787              	hall_sensor_flag:
 1788 0000 00       		.space	1
 1789 0001 000000   		.space	3
 1790              		.type	hall_count, %object
 1791              		.size	hall_count, 4
 1792              	hall_count:
 1793 0004 00000000 		.space	4
 1794              		.type	count, %object
 1795              		.size	count, 4
 1796              	count:
 1797 0008 00000000 		.space	4
 1798              		.type	distance, %object
 1799              		.size	distance, 4
 1800              	distance:
 1801 000c 00000000 		.space	4
 1802              		.type	prev_distance, %object
 1803              		.size	prev_distance, 4
 1804              	prev_distance:
 1805 0010 00000000 		.space	4
 1806              		.type	sensor_delay_count, %object
 1807              		.size	sensor_delay_count, 4
ARM GAS  C:\Users\rohi2\AppData\Local\Temp\ccib12mr.s 			page 50


 1808              	sensor_delay_count:
 1809 0014 00000000 		.space	4
 1810              		.type	yaw_index, %object
 1811              		.size	yaw_index, 4
 1812              	yaw_index:
 1813 0018 00000000 		.space	4
 1814              		.type	move_steps, %object
 1815              		.size	move_steps, 4
 1816              	move_steps:
 1817 001c 00000000 		.space	4
 1818              		.type	pitch_index, %object
 1819              		.size	pitch_index, 4
 1820              	pitch_index:
 1821 0020 00000000 		.space	4
 1822              		.type	pitch_no_of_steps, %object
 1823              		.size	pitch_no_of_steps, 4
 1824              	pitch_no_of_steps:
 1825 0024 00000000 		.space	4
 1826              		.type	pitch_move_steps, %object
 1827              		.size	pitch_move_steps, 4
 1828              	pitch_move_steps:
 1829 0028 00000000 		.space	4
 1830              		.type	ccw_flag, %object
 1831              		.size	ccw_flag, 2
 1832              	ccw_flag:
 1833 002c 0000     		.space	2
 1834              		.type	cw_flag, %object
 1835              		.size	cw_flag, 2
 1836              	cw_flag:
 1837 002e 0000     		.space	2
 1838              		.text
 1839              	.Letext0:
 1840              		.file 2 "d:\\program files (x86)\\cypress\\psoc creator\\4.0\\psoc creator\\import\\gnu\\arm\\4.9.
 1841              		.file 3 "d:\\program files (x86)\\cypress\\psoc creator\\4.0\\psoc creator\\import\\gnu\\arm\\4.9.
 1842              		.file 4 "Generated_Source\\PSoC5/cytypes.h"
 1843              		.file 5 "Generated_Source\\PSoC5/core_cm3.h"
 1844              		.file 6 "Generated_Source\\PSoC5/Counter_1.h"
 1845              		.file 7 "Generated_Source\\PSoC5/LCD.h"
 1846              		.file 8 "Generated_Source\\PSoC5/Counter_2.h"
 1847              		.file 9 "Generated_Source\\PSoC5/Pin_A1.h"
 1848              		.file 10 "Generated_Source\\PSoC5/Pin_A2.h"
 1849              		.file 11 "Generated_Source\\PSoC5/Pin_B1.h"
 1850              		.file 12 "Generated_Source\\PSoC5/Pin_B2.h"
 1851              		.file 13 "Generated_Source\\PSoC5/CyLib.h"
 1852              		.file 14 "Generated_Source\\PSoC5/Pin_A1_1.h"
 1853              		.file 15 "Generated_Source\\PSoC5/Pin_A2_1.h"
 1854              		.file 16 "Generated_Source\\PSoC5/Pin_B1_1.h"
 1855              		.file 17 "Generated_Source\\PSoC5/Pin_B2_1.h"
 1856              		.file 18 "Generated_Source\\PSoC5/isr_1.h"
 1857              		.file 19 "Generated_Source\\PSoC5/isr_3.h"
 1858              		.file 20 "Generated_Source\\PSoC5/isr_2.h"
 1859              		.file 21 "Generated_Source\\PSoC5/isr_4.h"
 1860              		.file 22 "Generated_Source\\PSoC5/isr_5.h"